(dp0
S'keygenerator'
p1
(iUser.keygen
KeyGene
p2
(dp3
S'masterKey'
p4
(lp5
I10043
aI1666
aI6986
aI6436
aI4821
aI767
aI4089
aI5082
aI569
aI578
aI5752
aI1299
aI6223
aI9178
aI1028
aI5047
aI6023
aI3036
aI4220
aI3808
aI8690
aI8553
aI2676
aI7114
aI3721
aI6302
aI7648
aI2755
aI6245
aI6130
aI8667
aI2724
aI7647
aI156
aI3411
aI6610
aI227
aI10064
aI6773
aI9077
aI287
aI116
aI5396
aI5241
aI4146
aI3156
aI5063
aI5407
aI1301
aI6719
aI2971
aI4645
aI7621
aI6644
aI7433
aI8977
aI5622
aI4212
aI5315
aI7155
aI5144
aI8539
aI9789
aI8988
aI518
aI8276
aI81
aI7787
aI7620
aI4323
aI7809
aI1427
aI5246
aI4969
aI1841
aI9373
aI6152
aI9292
aI6639
aI2090
aI7586
aI10040
aI4536
aI144
aI8180
aI3914
aI168
aI6025
aI1966
aI3918
aI6820
aI316
aI9411
aI466
aI7519
aI2158
aI9456
aI3454
aI10048
aI4094
aI4175
aI3655
aI3665
aI370
aI6476
aI984
aI5275
aI9555
aI5159
aI5697
aI8738
aI412
aI1811
aI7190
aI3767
aI4918
aI1774
aI3225
aI4181
aI2395
aI8913
aI8331
aI3174
aI6856
aI4879
aI5838
aI5994
aI8005
aI2513
aI455
aI2371
aI6680
aI2923
aI2333
aI4774
aI2924
aI8383
aI611
aI3428
aI8044
aI8718
aI14
aI671
aI9253
aI9107
aI130
aI693
aI305
aI6175
aI6576
aI5270
aI3945
aI10083
aI6675
aI4711
aI5791
aI7774
aI369
aI1927
aI265
aI7061
aI4785
aI4347
aI6047
aI2250
aI3601
aI5882
aI4168
aI4122
aI998
aI1172
aI9023
aI4026
aI2389
aI6353
aI2479
aI2756
aI4460
aI4150
aI7005
aI3854
aI275
aI8972
aI5747
aI6032
aI6215
aI3335
aI2421
aI4601
aI1304
aI5750
aI4481
aI2813
aI5780
aI8174
aI6489
aI2917
aI7469
aI804
aI1928
aI9117
aI4
aI6506
aI5194
aI3969
aI992
aI1663
aI7877
aI7676
aI2485
aI1086
aI8284
aI4275
aI2974
aI833
aI5553
aI4953
aI4200
aI6405
aI4697
aI7235
aI6274
aI880
aI8330
aI9799
aI9447
aI4360
aI5768
aI2325
aI393
aI2020
aI9920
aI3760
aI5615
aI4893
aI8406
aI3693
aI9641
aI7788
aI7039
aI10088
aI4763
aI2994
aI4199
aI6664
aI3669
aI7721
aI9483
aI92
aI7437
aI294
aI3629
aI506
aI8522
aI3479
aI3530
aI9997
aI7206
aI9533
aI2581
aI8894
aI5450
aI1453
aI1592
aI9356
aI5092
aI5875
aI782
aI3735
aI5187
aI5775
aI2349
aI8109
aI8372
aI7733
aI4722
aI5920
aI229
aI6572
aI5803
aI6296
aI4846
aI546
aI4174
aI2202
aI459
aI7458
aI1572
aI1768
aI3065
aI252
aI526
aI7265
aI10047
aI8955
aI9636
aI5520
aI7494
aI8675
aI6953
aI4375
aI2164
aI603
aI10269
aI1315
aI9142
aI212
aI433
aI4537
aI6565
aI6968
aI4343
aI5169
aI5758
aI1649
aI8348
aI10056
aI5827
aI4937
aI5067
aI3993
aI10052
aI1573
aI2084
aI154
aI2538
aI129
aI3006
aI5393
aI1971
aI9751
aI9743
aI941
aI4120
aI2192
aI6233
aI3069
aI8220
aI5816
aI2896
aI8896
aI7750
aI5436
aI160
aI1589
aI3727
aI1840
aI1728
aI3049
aI4117
aI4457
aI1361
aI3142
aI2355
aI9314
aI653
aI5710
aI7438
aI8027
aI9983
aI3609
aI3880
aI1894
aI585
aI9394
aI1604
aI476
aI5004
aI2244
aI6641
aI1010
aI8416
aI2281
aI3257
aI5165
aI7430
aI1647
aI7202
aI1158
aI3263
aI61
aI8958
aI4891
aI7463
aI8607
aI8435
aI6057
aI3204
aI9733
aI3736
aI7455
aI6293
aI3459
aI7856
aI1601
aI10117
aI3591
aI1717
aI1398
aI2004
aI838
asbsS'publicKey'
p6
(lp7
I2091
aI6417
aI2353
aI7028
aI5322
aI8914
aI1255
aI8248
aI308
aI5376
aI2553
aI4392
aI3694
aI4299
aI1551
aI3401
aI5394
aI5061
aI5286
aI8788
aI8447
aI4467
aI8121
aI1265
aI4383
aI8167
aI7015
aI2305
aI3507
aI9629
aI3498
aI7713
aI1879
aI8963
aI7018
aI5549
aI3215
aI7057
aI9308
aI13
aI2705
aI9303
aI5579
aI1752
aI5915
aI4041
aI3265
aI341
aI4375
aI9767
aI469
aI6818
aI2100
aI5260
aI3698
aI863
aI3658
aI5354
aI1123
aI6061
aI7721
aI4586
aI4250
aI5914
aI5886
aI1677
aI4456
aI689
aI7253
aI9555
aI502
aI3304
aI6854
aI4064
aI10074
aI7786
aI9442
aI3330
aI158
aI2813
aI7542
aI7261
aI2600
aI9065
aI2493
aI7887
aI8861
aI5377
aI3867
aI7853
aI3764
aI7603
aI7463
aI6328
aI2967
aI2235
aI1936
aI1508
aI7193
aI6357
aI524
aI4944
aI4859
aI7144
aI6688
aI1925
aI1463
aI6239
aI2449
aI8165
aI8039
aI6787
aI40
aI619
aI3992
aI9642
aI5499
aI8599
aI473
aI5365
aI1407
aI6354
aI3888
aI3458
aI4829
aI1822
aI496
aI9125
aI4362
aI1277
aI5569
aI4954
aI877
aI5892
aI577
aI6013
aI5912
aI10240
aI1729
aI3649
aI8209
aI10170
aI9730
aI8806
aI10047
aI9184
aI9543
aI2552
aI4102
aI5838
aI6650
aI2479
aI1751
aI10141
aI6257
aI7366
aI5944
aI2008
aI9343
aI2892
aI6860
aI5628
aI9351
aI5190
aI1453
aI5403
aI1448
aI5728
aI6119
aI1806
aI327
aI472
aI6935
aI5416
aI2589
aI4651
aI7441
aI3246
aI5881
aI7336
aI8397
aI2807
aI6050
aI7740
aI173
aI3762
aI7664
aI5144
aI7192
aI9494
aI2570
aI8212
aI1812
aI2315
aI2544
aI1433
aI928
aI3392
aI3455
aI4190
aI9962
aI10255
aI6433
aI7296
aI2275
aI1857
aI1298
aI10213
aI6777
aI4600
aI1058
aI1609
aI9963
aI5588
aI8353
aI9389
aI4200
aI5456
aI2147
aI6376
aI5381
aI8405
aI2809
aI1218
aI4165
aI7157
aI4096
aI2417
aI5960
aI1804
aI3408
aI8281
aI9196
aI8862
aI4710
aI572
aI4621
aI5508
aI5825
aI7047
aI6853
aI5815
aI5418
aI320
aI5090
aI4825
aI1250
aI6851
aI9507
aI3664
aI7790
aI5165
aI5988
aI9875
aI6440
aI862
aI2482
aI483
aI6426
aI3784
aI6713
aI5120
aI3083
aI7046
aI2786
aI8163
aI6652
aI3642
aI4264
aI2211
aI7502
aI5756
aI8241
aI861
aI1148
aI1019
aI1125
aI3198
aI5872
aI7264
aI8218
aI10254
aI5648
aI5677
aI1861
aI1243
aI8630
aI7216
aI5550
aI9959
aI8147
aI5818
aI5126
aI2057
aI1050
aI406
aI4525
aI8324
aI3430
aI7778
aI9113
aI2184
aI19
aI170
aI4256
aI4605
aI8487
aI1464
aI7736
aI787
aI2506
aI9385
aI2364
aI2502
aI1417
aI1065
aI7125
aI7060
aI4336
aI3231
aI2071
aI7159
aI2063
aI2864
aI8980
aI9294
aI4048
aI5316
aI460
aI8969
aI4573
aI4641
aI7435
aI6136
aI1946
aI3609
aI9925
aI2153
aI2009
aI6251
aI6696
aI6148
aI5239
aI8929
aI1927
aI4332
aI4938
aI5890
aI10095
aI1017
aI8416
aI3865
aI4160
aI5705
aI3143
aI9883
aI2910
aI8800
aI8938
aI2601
aI5335
aI8176
aI4479
aI172
aI2463
aI6944
aI6243
aI8911
aI1504
aI141
aI1704
aI487
aI6334
aI8327
aI2398
aI8868
aI1434
aI517
aI446
aI8276
aI4626
aI6169
aI4727
aI3443
aI4008
aI5470
aI5105
aI3633
aI4726
aI9400
aI3511
aI3099
aI6610
aI5247
aI1825
aI1462
aI5488
aI839
aI8695
aI3544
aI2514
asS'attributi'
p8
(lp9
I0
aI1
aI2
aI3
aI4
aI5
aI6
aI7
aI8
aI9
aI10
aI11
aI12
aI13
aI14
aI15
aI16
aI17
aI18
aI19
aI20
aI21
aI22
aI23
aI24
aI25
aI26
aI27
aI28
aI29
aI30
aI31
aI32
aI33
aI34
aI35
aI36
aI37
aI38
aI39
aI40
aI41
aI42
aI43
aI44
aI45
aI46
aI47
aI48
aI49
aI50
aI51
aI52
aI53
aI54
aI55
aI56
aI57
aI58
aI59
aI60
aI61
aI62
aI63
aI64
aI65
aI66
aI67
aI68
aI69
aI70
aI71
aI72
aI73
aI74
aI75
aI76
aI77
aI78
aI79
aI80
aI81
aI82
aI83
aI84
aI85
aI86
aI87
aI88
aI89
aI90
aI91
aI92
aI93
aI94
aI95
aI96
aI97
aI98
aI99
aI100
aI101
aI102
aI103
aI104
aI105
aI106
aI107
aI108
aI109
aI110
aI111
aI112
aI113
aI114
aI115
aI116
aI117
aI118
aI119
aI120
aI121
aI122
aI123
aI124
aI125
aI126
aI127
aI128
aI129
aI130
aI131
aI132
aI133
aI134
aI135
aI136
aI137
aI138
aI139
aI140
aI141
aI142
aI143
aI144
aI145
aI146
aI147
aI148
aI149
aI150
aI151
aI152
aI153
aI154
aI155
aI156
aI157
aI158
aI159
aI160
aI161
aI162
aI163
aI164
aI165
aI166
aI167
aI168
aI169
aI170
aI171
aI172
aI173
aI174
aI175
aI176
aI177
aI178
aI179
aI180
aI181
aI182
aI183
aI184
aI185
aI186
aI187
aI188
aI189
aI190
aI191
aI192
aI193
aI194
aI195
aI196
aI197
aI198
aI199
aI200
aI201
aI202
aI203
aI204
aI205
aI206
aI207
aI208
aI209
aI210
aI211
aI212
aI213
aI214
aI215
aI216
aI217
aI218
aI219
aI220
aI221
aI222
aI223
aI224
aI225
aI226
aI227
aI228
aI229
aI230
aI231
aI232
aI233
aI234
aI235
aI236
aI237
aI238
aI239
aI240
aI241
aI242
aI243
aI244
aI245
aI246
aI247
aI248
aI249
aI250
aI251
aI252
aI253
aI254
aI255
aI256
aI257
aI258
aI259
aI260
aI261
aI262
aI263
aI264
aI265
aI266
aI267
aI268
aI269
aI270
aI271
aI272
aI273
aI274
aI275
aI276
aI277
aI278
aI279
aI280
aI281
aI282
aI283
aI284
aI285
aI286
aI287
aI288
aI289
aI290
aI291
aI292
aI293
aI294
aI295
aI296
aI297
aI298
aI299
aI300
aI301
aI302
aI303
aI304
aI305
aI306
aI307
aI308
aI309
aI310
aI311
aI312
aI313
aI314
aI315
aI316
aI317
aI318
aI319
aI320
aI321
aI322
aI323
aI324
aI325
aI326
aI327
aI328
aI329
aI330
aI331
aI332
aI333
aI334
aI335
aI336
aI337
aI338
aI339
aI340
aI341
aI342
aI343
aI344
aI345
aI346
aI347
aI348
aI349
aI350
aI351
aI352
aI353
aI354
aI355
aI356
aI357
aI358
aI359
aI360
aI361
aI362
aI363
aI364
aI365
aI366
aI367
aI368
aI369
aI370
aI371
aI372
aI373
aI374
aI375
aI376
aI377
aI378
aI379
aI380
aI381
aI382
aI383
aI384
aI385
aI386
aI387
aI388
aI389
aI390
aI391
aI392
aI393
aI394
aI395
aI396
aI397
aI398
aI399
aI400
asg4
g5
s.