(dp0
S'keygenerator'
p1
(iUser.keygen
KeyGene
p2
(dp3
S'masterKey'
p4
(lp5
I4771
aI5007
aI5955
aI4700
aI6487
aI2404
aI7085
aI5791
aI2971
aI3493
aI2121
aI6180
aI2874
aI2973
aI8208
aI4640
aI2480
aI5286
aI2137
aI6538
aI4068
aI202
aI9350
aI6647
aI8768
aI6319
aI8309
aI6245
aI9082
aI9638
aI5281
aI6842
aI9790
aI5678
aI4178
aI699
aI1896
aI3814
aI3589
aI235
aI6108
aI196
aI2650
aI350
aI5175
aI7001
aI1466
aI3542
aI4424
aI3744
aI5415
aI1239
aI6402
aI498
aI9558
aI1754
aI5841
aI9670
aI8250
aI1839
aI3528
aI4206
aI2612
aI4581
aI5492
aI6056
aI8914
aI5533
aI7188
aI2430
aI2898
aI1386
aI7448
aI10091
aI3952
aI1918
aI2855
aI491
aI2197
aI9046
aI4570
aI10283
aI2810
aI7000
aI672
aI6789
aI7220
aI4073
aI317
aI4208
aI4628
aI5826
aI3308
aI5240
aI8685
aI3197
aI391
aI3222
aI300
aI1342
aI9841
aI5118
aI7540
aI7630
aI3817
aI8243
aI4422
aI4894
aI732
aI7304
aI4493
aI8807
aI3042
aI1633
aI5893
aI6457
aI1919
aI3189
aI6637
aI4438
aI7130
aI3842
aI2762
aI3070
aI2363
aI5555
aI2202
aI7090
aI1311
aI10013
aI5121
aI2174
aI3315
aI8326
aI7858
aI4296
aI107
aI2402
aI4479
aI8338
aI7911
aI226
aI1032
aI6978
aI8900
aI7553
aI304
aI2885
aI1917
aI2748
aI8864
aI1596
aI8779
aI5354
aI3348
aI3746
aI2675
aI6129
aI3849
aI5031
aI7510
aI5256
aI7509
aI7538
aI6478
aI3084
aI1731
aI7536
aI8946
aI110
aI1880
aI2580
aI2598
aI5215
aI9006
aI8889
aI7295
aI5044
aI7866
aI2626
aI2681
aI472
aI6126
aI9643
aI5803
aI4608
aI551
aI5035
aI5874
aI5277
aI8374
aI7002
aI6149
aI213
aI2514
aI5038
aI2265
aI9655
aI3474
aI8460
aI4306
aI8777
aI4749
aI8423
aI3035
aI10187
aI6456
aI2721
aI3983
aI4510
aI5583
aI7154
aI7180
aI8617
aI2232
aI6374
aI9916
aI8928
aI8261
aI5730
aI518
aI5204
aI8595
aI5163
aI992
aI6996
aI4291
aI6117
aI8174
aI1711
aI4359
aI8049
aI4253
aI5838
aI10236
aI9191
aI7047
aI1606
aI7791
aI3758
aI3597
aI8098
aI1114
aI6382
aI10109
aI4973
aI9757
aI5200
aI585
aI3408
aI2586
aI10164
aI9766
aI2316
aI8402
aI10234
aI8927
aI8178
aI4854
aI195
aI418
aI8340
aI9178
aI3965
aI8235
aI9503
aI4409
aI7637
aI9992
aI1845
aI3182
aI8532
aI9565
aI1514
aI688
aI2374
aI6235
aI1586
aI6893
aI7942
aI7758
aI6006
aI8028
aI2159
aI763
aI8478
aI9897
aI5379
aI10123
aI5156
aI4960
aI2357
aI9511
aI2458
aI7341
aI9122
aI342
aI2932
aI3338
aI3359
aI3686
aI8021
aI9307
aI4538
aI1442
aI8066
aI7372
aI7276
aI2100
aI3284
aI4235
aI7211
aI1133
aI37
aI1363
aI9602
aI7442
aI7107
aI5159
aI2399
aI7066
aI2148
aI6961
aI3455
aI1643
aI9718
aI5315
aI4412
aI625
aI5856
aI6455
aI2221
aI965
aI8498
aI9647
aI48
aI910
aI4992
aI7851
aI134
aI10023
aI5409
aI4864
aI1048
aI1326
aI5590
aI6991
aI3610
aI9590
aI8664
aI8637
aI4077
aI8085
aI8120
aI3387
aI8026
aI7591
aI712
aI3826
aI5977
aI7500
aI3390
aI5331
aI10185
aI4788
aI8566
aI7272
aI5342
aI7411
aI8158
aI1224
aI4219
aI6205
aI4518
aI10203
aI8240
aI8552
aI3079
aI9209
aI7440
aI2247
aI2780
aI9903
aI1457
aI4846
aI10256
aI6526
aI6762
aI3168
aI9220
aI7943
aI4012
aI4558
aI7986
aI5592
aI8677
aI2682
aI1617
aI7169
aI3650
aI3992
asbsS'publicKey'
p6
(lp7
I5747
aI3741
aI5972
aI1206
aI1450
aI144
aI6656
aI7366
aI469
aI6321
aI7694
aI9204
aI6438
aI452
aI2255
aI1716
aI9787
aI6514
aI7558
aI6161
aI6578
aI8572
aI2837
aI90
aI7784
aI2878
aI6541
aI3507
aI5115
aI389
aI1412
aI3577
aI9386
aI3182
aI5643
aI9492
aI4462
aI8737
aI5505
aI3147
aI9816
aI8623
aI8342
aI7314
aI2313
aI7370
aI8117
aI760
aI3552
aI9332
aI273
aI4902
aI7317
aI6056
aI1069
aI5669
aI6941
aI117
aI1898
aI10091
aI879
aI5405
aI8665
aI7362
aI4763
aI10258
aI6543
aI9559
aI636
aI10212
aI6234
aI8797
aI8715
aI1683
aI7564
aI4275
aI1455
aI971
aI7048
aI5421
aI2311
aI51
aI6982
aI2234
aI4577
aI9172
aI364
aI1391
aI2450
aI5388
aI1818
aI1924
aI2749
aI6905
aI3345
aI8837
aI1821
aI3480
aI7739
aI9171
aI3808
aI7942
aI7933
aI7168
aI3567
aI7102
aI3569
aI9846
aI4067
aI9939
aI8110
aI2308
aI5010
aI1553
aI6499
aI1705
aI9411
aI8905
aI175
aI3433
aI1129
aI8499
aI7390
aI4772
aI5637
aI9372
aI1861
aI1469
aI4290
aI2346
aI2772
aI2099
aI7834
aI1252
aI5230
aI4640
aI4235
aI161
aI8229
aI1150
aI9924
aI8368
aI1517
aI2421
aI6662
aI2678
aI7705
aI1200
aI9428
aI7509
aI6968
aI7012
aI2546
aI5936
aI2409
aI9315
aI2985
aI4493
aI3295
aI3537
aI8188
aI6769
aI3052
aI7950
aI6671
aI4653
aI720
aI7967
aI6271
aI9354
aI4598
aI8937
aI8784
aI1973
aI5761
aI1611
aI4871
aI8571
aI5162
aI8546
aI2934
aI6277
aI9663
aI5491
aI7264
aI1988
aI461
aI3503
aI1516
aI1446
aI844
aI2217
aI4323
aI3334
aI9498
aI8622
aI6470
aI5389
aI1338
aI113
aI4555
aI2563
aI5934
aI5572
aI10214
aI867
aI6858
aI2594
aI2156
aI2821
aI9134
aI925
aI704
aI3923
aI1606
aI7555
aI8315
aI6424
aI6949
aI2740
aI5886
aI7211
aI4110
aI2415
aI1857
aI2268
aI9827
aI4595
aI2544
aI890
aI9249
aI8751
aI10150
aI1822
aI5595
aI9333
aI6979
aI6927
aI655
aI9213
aI5437
aI3190
aI820
aI7487
aI1530
aI4030
aI4522
aI7245
aI172
aI1899
aI8886
aI6207
aI9590
aI892
aI606
aI5612
aI1288
aI2510
aI10186
aI3487
aI6736
aI1133
aI4299
aI2309
aI7170
aI6681
aI8824
aI1964
aI7669
aI10040
aI3820
aI9790
aI6154
aI7709
aI4441
aI399
aI3592
aI7097
aI8288
aI4516
aI6080
aI394
aI3785
aI7371
aI8948
aI10249
aI3332
aI579
aI1411
aI7619
aI9285
aI5688
aI6613
aI9974
aI4480
aI4775
aI7382
aI5945
aI2494
aI7460
aI9825
aI8989
aI8347
aI2583
aI8321
aI3462
aI9361
aI10177
aI2728
aI2953
aI14
aI5585
aI5803
aI4830
aI3848
aI695
aI8766
aI6469
aI2449
aI5331
aI1673
aI2320
aI7710
aI6644
aI1468
aI9998
aI1123
aI3654
aI10121
aI1669
aI1722
aI6844
aI7231
aI10079
aI5457
aI9881
aI2554
aI9013
aI145
aI9150
aI2261
aI324
aI10101
aI1381
aI9307
aI3930
aI7455
aI182
aI797
aI8668
aI3753
aI1357
aI8445
aI3003
aI7222
aI3802
aI2355
aI4237
aI8635
aI5785
aI8273
aI2052
aI987
aI884
aI458
aI9501
aI10211
aI6038
aI3885
aI2680
aI10174
aI150
aI3847
aI2753
aI731
aI1983
aI9620
aI9840
aI9180
aI8783
aI6623
aI7237
aI3281
aI3049
aI10254
aI5425
aI6263
aI4257
aI3939
aI3942
aI9652
aI7054
aI2413
aI4142
aI3913
aI3413
aI8070
aI1689
aI5942
aI10131
aI1687
asS'attributi'
p8
(lp9
I0
aI1
aI2
aI3
aI4
aI5
aI6
aI7
aI8
aI9
aI10
aI11
aI12
aI13
aI14
aI15
aI16
aI17
aI18
aI19
aI20
aI21
aI22
aI23
aI24
aI25
aI26
aI27
aI28
aI29
aI30
aI31
aI32
aI33
aI34
aI35
aI36
aI37
aI38
aI39
aI40
aI41
aI42
aI43
aI44
aI45
aI46
aI47
aI48
aI49
aI50
aI51
aI52
aI53
aI54
aI55
aI56
aI57
aI58
aI59
aI60
aI61
aI62
aI63
aI64
aI65
aI66
aI67
aI68
aI69
aI70
aI71
aI72
aI73
aI74
aI75
aI76
aI77
aI78
aI79
aI80
aI81
aI82
aI83
aI84
aI85
aI86
aI87
aI88
aI89
aI90
aI91
aI92
aI93
aI94
aI95
aI96
aI97
aI98
aI99
aI100
aI101
aI102
aI103
aI104
aI105
aI106
aI107
aI108
aI109
aI110
aI111
aI112
aI113
aI114
aI115
aI116
aI117
aI118
aI119
aI120
aI121
aI122
aI123
aI124
aI125
aI126
aI127
aI128
aI129
aI130
aI131
aI132
aI133
aI134
aI135
aI136
aI137
aI138
aI139
aI140
aI141
aI142
aI143
aI144
aI145
aI146
aI147
aI148
aI149
aI150
aI151
aI152
aI153
aI154
aI155
aI156
aI157
aI158
aI159
aI160
aI161
aI162
aI163
aI164
aI165
aI166
aI167
aI168
aI169
aI170
aI171
aI172
aI173
aI174
aI175
aI176
aI177
aI178
aI179
aI180
aI181
aI182
aI183
aI184
aI185
aI186
aI187
aI188
aI189
aI190
aI191
aI192
aI193
aI194
aI195
aI196
aI197
aI198
aI199
aI200
aI201
aI202
aI203
aI204
aI205
aI206
aI207
aI208
aI209
aI210
aI211
aI212
aI213
aI214
aI215
aI216
aI217
aI218
aI219
aI220
aI221
aI222
aI223
aI224
aI225
aI226
aI227
aI228
aI229
aI230
aI231
aI232
aI233
aI234
aI235
aI236
aI237
aI238
aI239
aI240
aI241
aI242
aI243
aI244
aI245
aI246
aI247
aI248
aI249
aI250
aI251
aI252
aI253
aI254
aI255
aI256
aI257
aI258
aI259
aI260
aI261
aI262
aI263
aI264
aI265
aI266
aI267
aI268
aI269
aI270
aI271
aI272
aI273
aI274
aI275
aI276
aI277
aI278
aI279
aI280
aI281
aI282
aI283
aI284
aI285
aI286
aI287
aI288
aI289
aI290
aI291
aI292
aI293
aI294
aI295
aI296
aI297
aI298
aI299
aI300
aI301
aI302
aI303
aI304
aI305
aI306
aI307
aI308
aI309
aI310
aI311
aI312
aI313
aI314
aI315
aI316
aI317
aI318
aI319
aI320
aI321
aI322
aI323
aI324
aI325
aI326
aI327
aI328
aI329
aI330
aI331
aI332
aI333
aI334
aI335
aI336
aI337
aI338
aI339
aI340
aI341
aI342
aI343
aI344
aI345
aI346
aI347
aI348
aI349
aI350
aI351
aI352
aI353
aI354
aI355
aI356
aI357
aI358
aI359
aI360
aI361
aI362
aI363
aI364
aI365
aI366
aI367
aI368
aI369
aI370
aI371
aI372
aI373
aI374
aI375
aI376
aI377
aI378
aI379
aI380
aI381
aI382
aI383
aI384
aI385
aI386
aI387
aI388
aI389
aI390
aI391
aI392
aI393
aI394
aI395
aI396
aI397
aI398
aI399
aI400
asg4
g5
s.