(dp0
S'keygenerator'
p1
(iUser.keygen
KeyGene
p2
(dp3
S'masterKey'
p4
(lp5
I7408
aI155
aI3828
aI1587
aI6184
aI6253
aI8609
aI2763
aI2946
aI4231
aI653
aI3793
aI9225
aI9045
aI5963
aI1204
aI6769
aI4514
aI9178
aI710
aI7955
aI140
aI8626
aI7224
aI6051
aI4827
aI146
aI1727
aI6792
aI2726
aI8192
aI5867
aI6171
aI3695
aI2118
aI6235
aI5737
aI1990
aI7553
aI6820
aI3354
aI8762
aI3319
aI7375
aI5061
aI9570
aI1316
aI5842
aI6033
aI5630
aI8139
aI9619
aI9565
aI5035
aI224
aI4277
aI5036
aI8205
aI27
aI5647
aI9281
aI10070
aI2755
aI1294
aI6821
aI6685
aI681
aI9200
aI5236
aI5628
aI10242
aI5959
aI2579
aI3703
aI4448
aI9218
aI9342
aI75
aI8586
aI458
aI2708
aI7854
aI9098
aI2416
aI7021
aI3036
aI5698
aI6789
aI629
aI4530
aI178
aI6109
aI8708
aI6959
aI3467
aI9144
aI8731
aI7082
aI1793
aI9435
aI1768
aI7321
aI7208
aI7764
aI1668
aI1176
aI677
aI7421
aI2276
aI5355
aI3376
aI6343
aI2108
aI4359
aI5211
aI6176
aI2071
aI9136
aI7360
aI9429
aI2129
aI9567
aI9985
aI1351
aI2680
aI745
aI9432
aI9285
aI1800
aI2550
aI9710
aI3386
aI4778
aI1705
aI7673
aI3477
aI6771
aI3915
aI4839
aI4955
aI109
aI10099
aI36
aI7825
aI7215
aI9372
aI4817
aI2170
aI7051
aI5320
aI6359
aI2769
aI10268
aI7901
aI5551
aI4863
aI5377
aI5055
aI4791
aI450
aI8909
aI2798
aI9331
aI1980
aI904
aI6428
aI936
aI1697
aI6702
aI8128
aI7693
aI5986
aI5508
aI6001
aI9262
aI4878
aI9812
aI5010
aI7232
aI6023
aI9174
aI1274
aI3588
aI2959
aI9629
aI6566
aI6529
aI5817
aI5268
aI2619
aI9459
aI964
aI1632
aI8339
aI7760
aI6621
aI2700
aI8310
aI316
aI3928
aI3853
aI568
aI5359
aI2558
aI501
aI2987
aI565
aI816
aI3872
aI9846
aI5270
aI2358
aI5150
aI2984
aI6419
aI542
aI3290
aI5002
aI2130
aI7046
aI3205
aI1002
aI5143
aI8842
aI2669
aI8004
aI4028
aI8569
aI4853
aI8925
aI8191
aI41
aI2210
aI9740
aI4565
aI1796
aI3490
aI10124
aI1413
aI3944
aI10157
aI7590
aI7795
aI8243
aI5768
aI863
aI4868
aI5472
aI6030
aI8965
aI4472
aI5818
aI1131
aI3511
aI2240
aI3656
aI969
aI10031
aI3311
aI1596
aI1806
aI6840
aI6659
aI6525
aI7894
aI4840
aI7193
aI5026
aI7441
aI6181
aI5911
aI10186
aI6632
aI1282
aI1422
aI9472
aI3457
aI6198
aI8014
aI1320
aI4581
aI7125
aI7620
aI7503
aI5471
aI991
aI617
aI7808
aI667
aI1597
aI9847
aI695
aI4381
aI8432
aI1272
aI3343
aI2025
aI6948
aI7662
aI8859
aI5882
aI5147
aI8864
aI5864
aI2958
aI1297
aI7635
aI7016
aI461
aI10274
aI6044
aI6885
aI4563
aI4344
aI8407
aI3923
aI3848
aI8508
aI5394
aI6498
aI6836
aI1135
aI7600
aI5662
aI9176
aI8466
aI5880
aI4621
aI7840
aI9697
aI5245
aI72
aI5789
aI9140
aI4122
aI6978
aI1931
aI1578
aI706
aI1862
aI4811
aI2785
aI7053
aI7892
aI59
aI3309
aI6649
aI3107
aI2523
aI622
aI3771
aI4274
aI10243
aI9303
aI1184
aI471
aI7206
aI525
aI1525
aI5439
aI5443
aI3581
aI7203
aI6599
aI1662
aI3807
aI4889
aI6455
aI5207
aI7753
aI4850
aI1050
aI5468
aI10130
aI3548
aI1926
aI7614
aI9586
aI10078
aI2838
aI5714
aI1356
aI640
aI8753
aI3214
aI9336
aI996
aI1873
aI452
aI5860
aI805
aI1497
aI6102
aI6618
aI9468
aI4933
aI348
aI6937
aI924
aI3672
aI4285
aI1655
aI185
aI10179
aI5445
aI3216
aI1428
aI4749
aI3966
aI2981
aI4757
aI4229
aI3006
aI1165
aI1777
aI9191
aI10233
aI3497
aI8921
aI3590
aI5381
aI6301
aI9290
aI3193
aI2995
aI5862
aI7012
aI2434
aI3935
aI7393
aI5996
aI7154
aI1545
aI5191
aI1882
aI7502
aI1477
aI2084
aI3704
aI6186
aI10188
aI278
aI2414
aI5241
aI8452
aI9867
aI3120
aI2183
aI3480
aI9667
aI8641
aI9388
aI6774
aI5431
aI711
aI3696
aI5132
aI2828
aI4194
aI1952
aI8769
aI7013
aI10107
aI9072
aI2257
aI6950
aI9067
aI4993
aI3001
aI3005
aI2476
aI4826
aI2022
aI237
aI8211
aI4599
aI9668
aI4543
aI6027
aI1172
aI6815
aI7722
aI8279
aI3176
aI2153
aI9175
aI9602
aI10236
aI3306
aI8945
aI5708
aI1838
aI8050
aI2657
aI3078
aI4145
aI4236
aI2818
aI10259
aI1104
aI4093
aI7670
aI353
aI5179
aI922
aI3558
aI8543
aI1166
aI7699
aI751
aI9299
aI8828
aI1767
aI8312
aI8792
aI9529
aI3956
aI2263
aI7137
aI7498
aI7866
aI6379
aI946
aI5671
aI7055
aI5076
aI6478
aI1033
aI2698
aI2251
aI10025
aI892
aI1091
aI758
aI7453
aI930
aI7484
aI5213
aI1625
aI8924
aI1813
aI5124
aI1712
aI1353
aI1479
aI8167
aI7221
aI5347
aI8024
aI201
aI8758
aI4673
aI206
aI8982
aI4976
aI8712
aI1551
aI2847
aI4162
aI1713
aI9199
aI8671
aI4844
aI5075
aI6637
aI5899
aI1548
aI8054
aI1757
aI791
aI1081
aI4341
aI2867
aI1986
aI9092
aI1149
aI8255
aI8006
aI2534
aI4822
aI7464
aI3154
aI5623
aI3279
aI5219
aI6936
aI4256
aI4569
aI4354
aI8829
aI4396
aI4981
aI1765
aI3276
aI1811
aI2786
aI4947
aI772
aI8505
aI5505
aI9379
aI7173
aI4877
aI4861
aI6622
aI8973
aI3135
aI8061
aI4110
aI8944
aI4268
aI1232
aI8785
aI3453
aI4572
aI2854
aI3163
aI10044
aI5997
aI8227
aI242
aI8309
aI4686
aI4639
aI544
aI1028
aI6760
aI1666
aI9989
aI55
aI9167
aI8182
aI5416
aI3051
aI2392
aI6266
aI8646
aI8657
aI7759
aI7937
aI2605
aI5017
aI4723
aI1674
aI337
aI4461
aI2536
aI6517
aI1944
aI5566
aI9672
aI1958
aI4671
aI8539
aI5135
aI5672
aI9695
aI473
aI6099
aI6803
aI1062
aI2325
aI1365
aI4595
aI2310
aI10181
aI6367
aI6175
aI382
aI3503
aI5776
aI7003
aI523
aI3988
aI9287
aI2651
aI7768
aI7990
aI3734
aI9648
aI7889
aI3879
aI7916
aI8812
aI7201
aI5760
aI9251
aI4190
aI8426
aI4040
aI5987
aI7915
aI4741
aI6257
aI1694
aI4975
aI9965
aI9358
aI3978
aI4130
aI8025
aI338
aI453
aI4141
aI8542
aI4379
aI8520
aI1867
aI4273
aI1684
aI4395
aI1557
aI9921
aI2060
aI7545
aI5887
aI5223
aI489
aI7386
aI6252
aI556
aI9324
aI2446
aI8834
aI2911
aI7514
aI8773
aI9702
aI5164
aI4795
aI9510
aI339
aI5676
aI6810
aI3201
aI4915
aI1910
aI3499
aI5936
aI3189
aI7403
aI3541
aI9982
aI864
aI205
aI9398
aI6114
aI4071
aI7063
aI8141
aI1083
aI6734
aI5892
aI188
aI736
aI8870
aI1208
aI6164
aI10084
aI8480
aI1502
aI4687
aI8689
aI3688
aI7567
aI456
aI3450
aI9154
aI2113
aI4556
aI7820
aI9738
aI6053
aI9537
aI606
aI4017
aI6989
aI10108
aI2612
aI8178
aI2687
aI807
aI2603
aI9328
aI5200
aI7264
aI693
aI90
aI4342
aI3865
aI2660
aI1174
aI8975
aI8637
aI1461
aI3657
aI721
aI5873
aI4684
aI7741
aI9785
aI8199
aI3249
aI5311
aI8238
aI2424
aI2562
aI8160
aI6868
aI4989
aI2835
aI1258
aI621
aI8315
aI6688
aI8479
aI6845
aI3366
aI5296
aI8047
aI10051
aI6884
aI1683
aI4637
aI558
aI3390
aI1994
aI3731
aI4421
aI6984
aI1194
aI2543
aI8275
aI1446
aI8653
aI6340
aI8412
aI10098
aI380
aI7071
aI1609
aI5464
aI2354
aI3692
aI3117
aI9772
aI8872
aI10006
aI5609
aI5888
aI8636
aI9319
aI5345
aI7631
aI1933
aI5098
aI9129
aI5112
aI8752
aI4407
aI8376
aI722
aI4417
aI5244
aI3248
aI3683
aI4121
aI4830
aI4443
aI4655
aI8364
aI9790
aI3711
aI2132
aI1916
aI9776
aI7611
aI9097
aI5462
aI10198
aI9679
aI4654
aI1371
aI2179
aI690
aI4882
aI6912
aI4181
aI8604
aI3895
aI3756
aI7594
aI870
aI8972
aI1046
aI7813
aI4292
aI4809
aI6907
aI1803
aI9147
aI3155
aI4343
aI8578
aI5511
aI7325
aI6550
aI8123
aI3226
aI1377
aI3479
aI3165
aI3068
aI6133
aI2433
aI8727
aI6026
aI8281
aI5762
aI5562
aI7166
aI5584
aI896
aI2343
aI2836
aI4340
aI2948
aI2991
aI1305
aI6825
aI8849
aI9661
aI425
aI6692
aI9674
aI6244
aI2782
aI4112
aI4899
aI9849
aI12
aI6533
aI10012
aI8863
aI7433
aI9550
aI7997
aI2778
aI9105
aI3684
aI8005
aI8648
aI979
aI518
aI4410
aI4074
aI5318
aI2576
aI5835
aI6259
aI8983
aI2474
aI9032
aI5530
aI8748
aI10048
aI10174
aI2994
aI3339
aI2148
aI10276
aI3099
aI6748
aI3921
aI6339
aI572
aI8096
aI2332
aI6492
aI240
aI10058
aI483
aI5425
aI2138
aI6939
aI4118
aI9068
aI1562
aI4492
aI3664
aI2229
aI2744
aI740
aI1337
aI3293
aI9782
aI2933
aI9060
aI7316
aI5361
aI7859
aI5418
aI9755
aI6289
aI2390
aI2144
aI7270
aI5489
aI4196
aI8415
aI10056
aI4474
aI3494
aI1559
aI7452
aI2055
aI5027
aI5761
aI5675
aI9902
aI8791
aI6083
aI9195
aI9066
aI4905
aI3324
aI6961
aI3347
aI4163
aI8596
aI6824
aI2527
aI9442
aI900
aI3308
aI8768
aI2318
aI4136
aI8124
aI2652
aI4377
aI2007
aI8304
aI9905
aI1106
aI9467
aI511
aI6570
aI202
aI2165
aI9531
aI6596
aI1896
aI4986
aI4736
aI4792
aI6042
aI310
aI7351
aI8669
aI6890
aI2701
aI1114
aI6268
aI5779
aI7868
aI1717
aI748
aI3623
aI7041
aI8530
aI5910
aI7505
aI2952
aI108
aI31
aI9797
aI7480
aI1966
aI3534
aI5029
aI1047
aI3591
aI1142
aI7850
aI8620
aI5558
aI2164
aI492
aI2072
aI9991
aI4650
aI3056
aI191
aI798
aI2481
aI978
aI7123
aI7957
aI4085
aI10085
aI2621
aI9856
aI7581
aI323
aI4246
aI1141
aI5184
aI8117
aI3902
aI7153
aI532
aI8375
aI6873
aI5771
aI64
aI1426
aI1025
aI1455
aI9779
aI7234
aI9669
aI731
aI3836
aI9670
aI2939
aI6100
aI9018
aI4658
aI10238
aI2508
aI7028
aI3034
aI7000
aI8429
aI8573
aI8045
aI6762
aI6802
aI3236
aI3407
aI8867
aI1117
aI8307
aI4233
aI8204
aI3151
aI3816
aI7561
aI8189
aI4675
aI573
aI8765
aI624
aI4939
aI4036
aI5657
aI4755
aI4760
aI7354
aI4782
aI1010
aI7364
aI3038
aI819
aI3431
aI749
aI4787
aI2930
aI2478
aI4408
aI8559
aI9385
aI3694
aI744
aI4034
aI6452
aI6569
aI7560
aI8469
aI7864
aI4239
aI9282
aI6149
aI1383
aI5521
aI8443
aI7637
aI6887
aI7075
aI135
aI7622
aI5111
aI2288
aI7454
aI9837
aI1746
aI6892
aI7597
aI7111
aI1726
aI432
aI86
aI5549
aI9235
aI6957
aI3806
aI7638
aI2515
aI1686
aI5157
aI5199
aI7419
aI1604
aI5215
aI9714
aI9541
aI9660
aI9419
aI254
aI4334
aI1696
aI437
aI6005
aI255
aI8166
aI7748
aI7410
aI4135
aI4672
aI5832
aI2064
aI7980
aI8830
aI599
aI7708
aI4994
aI3904
aI7018
aI6546
aI5045
aI2780
aI3723
aI510
aI3764
aI3873
aI1728
aI6915
aI9934
aI6656
aI6699
aI6213
aI5237
aI7518
aI3738
aI9038
aI4211
aI2466
aI2713
aI3613
aI3837
aI3579
aI8344
aI8425
aI2884
aI3079
aI4449
aI6893
aI9075
aI2730
aI7372
aI666
aI8962
aI2319
aI3137
aI5031
aI4900
aI7517
aI1720
aI7024
aI7229
aI2350
aI7017
aI2773
aI8428
aI6041
aI7758
aI3222
aI2807
aI1195
aI3096
aI1056
aI6717
aI6726
aI8778
aI7190
aI4170
aI4
aI8580
aI9307
aI8556
aI7093
aI7026
aI6720
aI7113
aI1782
aI7183
aI7653
aI3730
aI1125
aI6414
aI3679
aI7259
aI7261
aI9415
aI600
aI1983
aI9519
aI5841
aI6467
aI858
aI8900
aI2961
aI8595
aI1641
aI9373
aI3852
aI1665
aI10021
aI5482
aI82
aI4544
aI7661
aI121
aI5646
aI4314
aI3045
aI4553
aI7084
aI7225
aI1306
aI10038
aI6889
aI1057
aI3296
aI10148
aI1354
aI9116
aI4761
aI3462
aI9518
aI1116
aI680
aI6159
aI8943
aI4215
aI1112
aI8058
aI6329
aI54
aI5858
aI4094
aI2804
aI1085
aI7124
aI3889
aI10199
aI7467
aI3244
aI235
aI8298
aI6690
aI1816
aI3765
aI1464
aI6299
aI1836
aI9683
aI9933
aI2597
aI5407
aI1261
aI7525
aI3211
aI4720
aI859
aI4187
aI3941
aI3675
aI2802
aI2841
aI8811
aI2075
aI8941
aI4534
aI5480
aI2205
aI5012
aI4921
aI6197
aI6729
aI1312
aI7129
aI7385
aI1437
aI8151
aI7907
aI10288
aI1059
aI4706
aI9064
aI5379
aI9364
aI5583
aI9300
aI1561
aI2556
aI46
aI9633
aI257
aI6559
aI8822
aI5451
aI8992
aI4849
aI1550
aI3134
aI2032
aI4777
aI9248
aI6861
aI3025
aI1435
aI8881
aI8295
aI2440
aI2386
aI5706
aI5415
aI4067
aI2937
aI9109
aI7794
aI5183
aI4518
aI4862
aI6078
aI3179
aI4847
aI4779
aI6216
aI9438
aI8147
aI10024
aI5941
aI7507
aI9206
aI8974
aI9758
aI6113
aI3361
aI9141
aI6540
aI2389
aI10232
aI6510
aI6988
aI3037
aI9163
aI7101
aI126
aI2436
aI1605
aI3144
aI3095
aI5816
aI9135
aI5809
aI570
aI4020
aI3733
aI447
aI2425
aI2797
aI7958
aI9070
aI1367
aI10245
aI9179
aI1938
aI1969
aI10119
aI2087
aI1897
aI1824
aI1552
aI3338
aI7619
aI8369
aI7320
aI6311
aI9260
aI8512
aI7348
aI7479
aI7388
aI9039
aI6642
aI1891
aI9491
aI10227
aI2956
aI2058
aI2703
aI9713
aI7010
aI1681
aI6370
aI5876
aI9077
aI6644
aI10071
aI1273
aI2532
aI8866
aI7887
aI10175
aI1378
aI8470
aI5375
aI6094
aI6917
aI5919
aI5807
aI2655
aI6416
aI5690
aI7040
aI10177
aI9236
aI517
aI8495
aI6239
aI7601
aI2030
aI10055
aI4707
aI2767
aI6853
aI8687
aI4597
aI1191
aI10105
aI370
aI5614
aI7790
aI9089
aI3553
aI1975
aI9276
aI6786
aI6471
aI8779
aI7097
aI3353
aI2372
aI2830
aI9972
aI9271
aI7189
aI2182
aI3050
aI6355
aI8493
aI3219
aI6309
aI1231
aI5735
aI9400
aI9703
aI6713
aI5500
aI9374
aI5466
aI2696
aI7986
aI63
aI6285
aI8605
aI21
aI3220
aI3468
aI10195
aI1335
aI543
aI9334
aI8040
aI5934
aI3345
aI9033
aI1542
aI5700
aI6280
aI9332
asbsS'publicKey'
p6
(lp7
I9055
aI3827
aI8618
aI1944
aI9170
aI3439
aI3991
aI2237
aI5826
aI48
aI9883
aI3771
aI9044
aI285
aI5904
aI55
aI9342
aI2787
aI4299
aI4254
aI9550
aI9099
aI8991
aI330
aI5156
aI5271
aI9048
aI754
aI4002
aI7696
aI2391
aI6720
aI4136
aI4604
aI2575
aI3592
aI7825
aI3663
aI2678
aI3764
aI2358
aI7835
aI7800
aI4191
aI3282
aI967
aI9392
aI1788
aI5309
aI3590
aI7986
aI5695
aI6154
aI3503
aI8385
aI9946
aI8639
aI7425
aI4915
aI8590
aI8568
aI7006
aI2305
aI9579
aI8900
aI10056
aI9645
aI4112
aI6939
aI3607
aI5544
aI5938
aI3801
aI4536
aI3348
aI3959
aI2905
aI4507
aI9331
aI6396
aI7849
aI5264
aI4979
aI42
aI7200
aI5061
aI3012
aI9172
aI10087
aI2651
aI8776
aI4663
aI8294
aI7727
aI6542
aI4588
aI2954
aI1537
aI193
aI7259
aI5550
aI4650
aI466
aI6029
aI6400
aI293
aI9679
aI3800
aI1232
aI783
aI2171
aI2674
aI2660
aI9249
aI2007
aI9238
aI8119
aI4656
aI9463
aI7310
aI7626
aI6137
aI2584
aI3950
aI8087
aI9101
aI2140
aI8534
aI5278
aI9192
aI10066
aI2086
aI543
aI941
aI1658
aI6457
aI9325
aI2734
aI5169
aI4183
aI4218
aI1615
aI9983
aI366
aI5551
aI2650
aI5356
aI2133
aI6945
aI6225
aI2538
aI2186
aI5323
aI10009
aI9406
aI4965
aI596
aI3333
aI5577
aI6464
aI1441
aI7084
aI8143
aI3748
aI2605
aI7096
aI2333
aI1009
aI4767
aI2935
aI1488
aI564
aI4627
aI5581
aI3585
aI9982
aI9199
aI8860
aI262
aI5394
aI4333
aI9749
aI369
aI571
aI5610
aI5923
aI1093
aI7145
aI6667
aI3461
aI7055
aI2095
aI6706
aI6286
aI6063
aI311
aI7917
aI1388
aI7603
aI7768
aI3261
aI5461
aI749
aI9124
aI886
aI333
aI342
aI3353
aI8244
aI8910
aI6650
aI535
aI7670
aI5503
aI2028
aI5682
aI2902
aI8928
aI2473
aI1843
aI8769
aI1772
aI2585
aI7155
aI3036
aI3989
aI6918
aI4331
aI5050
aI1305
aI7544
aI4796
aI1793
aI9811
aI7498
aI5312
aI1202
aI6547
aI3423
aI7632
aI1122
aI7508
aI621
aI7102
aI2417
aI8098
aI10067
aI4933
aI190
aI965
aI3144
aI1992
aI5820
aI6168
aI1538
aI10080
aI7197
aI2193
aI7868
aI7012
aI5227
aI3594
aI10277
aI1127
aI4924
aI16
aI5738
aI8724
aI3630
aI4051
aI6346
aI6020
aI5362
aI9681
aI8491
aI1800
aI6627
aI9051
aI3904
aI9358
aI7362
aI6316
aI7253
aI3103
aI10086
aI7010
aI10189
aI5655
aI9764
aI1859
aI3757
aI9526
aI9062
aI351
aI9766
aI7596
aI8510
aI2676
aI6896
aI1866
aI1448
aI2551
aI6968
aI1601
aI5724
aI4409
aI1981
aI2098
aI1226
aI5272
aI71
aI8356
aI7515
aI4232
aI5708
aI2666
aI8448
aI9994
aI5596
aI6501
aI3628
aI5786
aI7423
aI3318
aI4316
aI62
aI1465
aI7022
aI5383
aI5032
aI1718
aI9677
aI7383
aI4622
aI6119
aI2421
aI9309
aI7165
aI4288
aI4751
aI5407
aI2050
aI6928
aI4941
aI4643
aI7885
aI73
aI9602
aI4277
aI5002
aI3958
aI4827
aI391
aI8381
aI225
aI1141
aI483
aI682
aI2471
aI69
aI35
aI5573
aI5653
aI498
aI6451
aI3652
aI4744
aI1722
aI2041
aI978
aI10220
aI1364
aI4967
aI6496
aI709
aI4207
aI7304
aI831
aI6938
aI6744
aI2876
aI9052
aI4849
aI2767
aI3548
aI2956
aI1823
aI9802
aI6447
aI1635
aI8591
aI2709
aI9867
aI5481
aI1834
aI4370
aI7331
aI7914
aI2435
aI9944
aI2566
aI9055
aI3827
aI8618
aI1944
aI9170
aI3439
aI3991
aI2237
aI5826
aI48
aI9883
aI3771
aI9044
aI285
aI5904
aI55
aI9342
aI2787
aI4299
aI4254
aI9550
aI9099
aI8991
aI330
aI5156
aI5271
aI9048
aI754
aI4002
aI7696
aI2391
aI6720
aI4136
aI4604
aI2575
aI3592
aI7825
aI3663
aI2678
aI3764
aI2358
aI7835
aI7800
aI4191
aI3282
aI967
aI9392
aI1788
aI5309
aI3590
aI7986
aI5695
aI6154
aI3503
aI8385
aI9946
aI8639
aI7425
aI4915
aI8590
aI8568
aI7006
aI2305
aI9579
aI8900
aI10056
aI9645
aI4112
aI6939
aI3607
aI5544
aI5938
aI3801
aI4536
aI3348
aI3959
aI2905
aI4507
aI9331
aI6396
aI7849
aI5264
aI4979
aI42
aI7200
aI5061
aI3012
aI9172
aI10087
aI2651
aI8776
aI4663
aI8294
aI7727
aI6542
aI4588
aI2954
aI1537
aI193
aI7259
aI5550
aI4650
aI466
aI6029
aI6400
aI293
aI9679
aI3800
aI1232
aI783
aI2171
aI2674
aI2660
aI9249
aI2007
aI9238
aI8119
aI4656
aI9463
aI7310
aI7626
aI6137
aI2584
aI3950
aI8087
aI9101
aI2140
aI8534
aI5278
aI9192
aI10066
aI2086
aI543
aI941
aI1658
aI6457
aI9325
aI2734
aI5169
aI4183
aI4218
aI1615
aI9983
aI366
aI5551
aI2650
aI5356
aI2133
aI6945
aI6225
aI2538
aI2186
aI5323
aI10009
aI9406
aI4965
aI596
aI3333
aI5577
aI6464
aI1441
aI7084
aI8143
aI3748
aI2605
aI7096
aI2333
aI1009
aI4767
aI2935
aI1488
aI564
aI4627
aI5581
aI3585
aI9982
aI9199
aI8860
aI262
aI5394
aI4333
aI9749
aI369
aI571
aI5610
aI5923
aI1093
aI7145
aI6667
aI3461
aI7055
aI2095
aI6706
aI6286
aI6063
aI311
aI7917
aI1388
aI7603
aI7768
aI3261
aI5461
aI749
aI9124
aI886
aI333
aI342
aI3353
aI8244
aI8910
aI6650
aI535
aI7670
aI5503
aI2028
aI5682
aI2902
aI8928
aI2473
aI1843
aI8769
aI1772
aI2585
aI7155
aI3036
aI3989
aI6918
aI4331
aI5050
aI1305
aI7544
aI4796
aI1793
aI9811
aI7498
aI5312
aI1202
aI6547
aI3423
aI7632
aI1122
aI7508
aI621
aI7102
aI2417
aI8098
aI10067
aI4933
aI190
aI965
aI3144
aI1992
aI5820
aI6168
aI1538
aI10080
aI7197
aI2193
aI7868
aI7012
aI5227
aI3594
aI10277
aI1127
aI4924
aI16
aI5738
aI8724
aI3630
aI4051
aI6346
aI6020
aI5362
aI9681
aI8491
aI1800
aI6627
aI9051
aI3904
aI9358
aI7362
aI6316
aI7253
aI3103
aI10086
aI7010
aI10189
aI5655
aI9764
aI1859
aI3757
aI9526
aI9062
aI351
aI9766
aI7596
aI8510
aI2676
aI6896
aI1866
aI1448
aI2551
aI6968
aI1601
aI5724
aI4409
aI1981
aI2098
aI1226
aI5272
aI71
aI8356
aI7515
aI4232
aI5708
aI2666
aI8448
aI9994
aI5596
aI6501
aI3628
aI5786
aI7423
aI3318
aI4316
aI62
aI1465
aI7022
aI5383
aI5032
aI1718
aI9677
aI7383
aI4622
aI6119
aI2421
aI9309
aI7165
aI4288
aI4751
aI5407
aI2050
aI6928
aI4941
aI4643
aI7885
aI73
aI9602
aI4277
aI5002
aI3958
aI4827
aI391
aI8381
aI225
aI1141
aI483
aI682
aI2471
aI69
aI35
aI5573
aI5653
aI498
aI6451
aI3652
aI4744
aI1722
aI2041
aI978
aI10220
aI1364
aI4967
aI6496
aI709
aI4207
aI7304
aI831
aI6938
aI6744
aI2876
aI9052
aI4849
aI2767
aI3548
aI2956
aI1823
aI9802
aI6447
aI1635
aI8591
aI2709
aI9867
aI5481
aI1834
aI4370
aI7331
aI7914
aI2435
aI9944
aI9878
aI1366
aI3572
aI935
aI18
aI3531
aI8440
aI5934
aI7445
aI384
aI5866
aI65
aI5316
aI5531
aI329
aI9333
aI476
aI6287
aI1339
aI352
aI562
aI3031
aI3347
aI8871
aI265
aI1618
aI2132
aI10178
aI2564
aI4038
aI479
aI925
aI2301
aI2177
aI4581
aI8256
aI2879
aI2864
aI9672
aI9153
aI6003
aI7926
aI59
aI1752
aI181
aI3587
aI4347
aI7167
aI1287
aI5287
aI3719
aI2514
aI4155
aI137
aI9390
aI9740
aI7823
aI6829
aI5507
aI3986
aI2631
aI7268
aI1547
aI5200
aI6538
aI2659
aI98
aI3860
aI214
aI180
aI9821
aI135
aI3391
aI3130
aI7374
aI7209
aI134
aI7685
aI5360
aI327
aI8951
aI6386
aI6796
aI3871
aI7422
aI9469
aI695
aI5595
aI2766
aI1135
aI2927
aI4955
aI3598
aI3138
aI4704
aI779
aI5150
aI6914
aI255
aI905
aI1221
aI6828
aI2144
aI2279
aI2452
aI624
aI4552
aI378
aI1437
aI9050
aI8415
aI7274
aI414
aI1371
aI7580
aI6460
aI7530
aI6487
aI6214
aI8290
aI5162
aI2368
aI2248
aI8386
aI6911
aI8299
aI6671
aI6653
aI7934
aI6589
aI2244
aI2707
aI6160
aI3846
aI3528
aI2384
aI8409
aI1990
aI1621
aI6458
aI23
aI7891
aI6026
aI3933
aI2862
aI7748
aI5500
aI851
aI3819
aI3436
aI7869
aI6580
aI8538
aI5965
aI9149
aI8260
aI2250
aI1523
aI5779
aI873
aI9265
aI3464
aI10271
aI3163
aI175
aI6448
aI7420
aI3564
aI499
aI8710
aI6245
aI9402
aI1353
aI3697
aI5030
aI5667
aI7000
aI3972
aI9328
aI169
aI8579
aI4058
aI8794
aI8140
aI1939
aI2778
aI4980
aI7464
aI4147
aI2121
aI3790
aI3962
aI431
aI3021
aI40
aI7186
aI4251
aI3727
aI4875
aI9797
aI7735
aI5908
aI4846
aI4982
aI5447
aI897
aI9364
aI8649
aI6221
aI6288
aI4878
aI10106
aI2495
aI6661
aI2294
aI6608
aI9126
aI7227
aI5615
aI7238
aI8232
aI6541
aI1325
aI6869
aI5665
aI1551
aI4274
aI6417
aI2550
aI4677
aI9537
aI2476
aI5409
aI10078
aI246
aI8473
aI8821
aI3583
aI927
aI9703
aI3580
aI3656
aI6155
aI6349
aI2280
aI8382
aI9311
aI1195
aI4054
aI4134
aI100
aI3935
aI6597
aI4586
aI2653
aI3233
aI5049
aI1124
aI4748
aI9053
aI1262
aI5960
aI3831
aI7243
aI943
aI918
aI2470
aI4102
aI7042
aI6236
aI2349
aI7353
aI699
aI7258
aI8517
aI3189
aI5995
aI4108
aI9417
aI304
aI10111
aI3040
aI4737
aI7410
aI5670
aI2485
aI8823
aI5541
aI402
aI6816
aI5700
aI9890
aI6002
aI3405
aI6179
aI4013
aI2754
aI2769
aI7343
aI6051
aI8955
aI7416
aI1294
aI813
aI9705
aI9079
aI9892
aI9853
aI9980
aI6264
aI8943
aI2199
aI3128
aI3068
aI2746
aI6550
aI1905
aI988
aI9242
aI8592
aI5563
aI3058
aI10076
aI7223
aI979
aI8154
aI2597
aI10134
aI7551
aI5543
aI1477
aI2263
aI3199
aI3849
aI8803
aI4523
aI4343
aI6270
aI989
aI8905
aI3953
aI5913
aI7754
aI2945
aI3402
aI2429
aI9765
aI1408
aI6843
aI7969
aI6228
aI4495
aI1363
aI8691
aI4033
aI6917
aI21
aI9340
aI6887
aI10232
aI7811
aI6461
aI3311
aI9808
aI2559
aI6413
aI1542
aI4503
aI7762
aI2430
aI5553
aI9828
aI5139
aI6392
aI5138
aI1867
aI7472
aI6683
aI8665
aI2510
aI2883
aI8574
aI3597
aI3024
aI7245
aI10279
aI9543
aI9524
aI4249
aI3159
aI8257
aI310
aI880
aI3753
aI3015
aI4927
aI9305
aI6669
aI1342
aI1080
aI4284
aI4019
aI9055
aI3827
aI8618
aI1944
aI9170
aI3439
aI3991
aI2237
aI5826
aI48
aI9883
aI3771
aI9044
aI285
aI5904
aI55
aI9342
aI2787
aI4299
aI4254
aI9550
aI9099
aI8991
aI330
aI5156
aI5271
aI9048
aI754
aI4002
aI7696
aI2391
aI6720
aI4136
aI4604
aI2575
aI3592
aI7825
aI3663
aI2678
aI3764
aI2358
aI7835
aI7800
aI4191
aI3282
aI967
aI9392
aI1788
aI5309
aI3590
aI7986
aI5695
aI6154
aI3503
aI8385
aI9946
aI8639
aI7425
aI4915
aI8590
aI8568
aI7006
aI2305
aI9579
aI8900
aI10056
aI9645
aI4112
aI6939
aI3607
aI5544
aI5938
aI3801
aI4536
aI3348
aI3959
aI2905
aI4507
aI9331
aI6396
aI7849
aI5264
aI4979
aI42
aI7200
aI5061
aI3012
aI9172
aI10087
aI2651
aI8776
aI4663
aI8294
aI7727
aI6542
aI4588
aI2954
aI1537
aI193
aI7259
aI5550
aI4650
aI466
aI6029
aI6400
aI293
aI9679
aI3800
aI1232
aI783
aI2171
aI2674
aI2660
aI9249
aI2007
aI9238
aI8119
aI4656
aI9463
aI7310
aI7626
aI6137
aI2584
aI3950
aI8087
aI9101
aI2140
aI8534
aI5278
aI9192
aI10066
aI2086
aI543
aI941
aI1658
aI6457
aI9325
aI2734
aI5169
aI4183
aI4218
aI1615
aI9983
aI366
aI5551
aI2650
aI5356
aI2133
aI6945
aI6225
aI2538
aI2186
aI5323
aI10009
aI9406
aI4965
aI596
aI3333
aI5577
aI6464
aI1441
aI7084
aI8143
aI3748
aI2605
aI7096
aI2333
aI1009
aI4767
aI2935
aI1488
aI564
aI4627
aI5581
aI3585
aI9982
aI9199
aI8860
aI262
aI5394
aI4333
aI9749
aI369
aI571
aI5610
aI5923
aI1093
aI7145
aI6667
aI3461
aI7055
aI2095
aI6706
aI6286
aI6063
aI311
aI7917
aI1388
aI7603
aI7768
aI3261
aI5461
aI749
aI9124
aI886
aI333
aI342
aI3353
aI8244
aI8910
aI6650
aI535
aI7670
aI5503
aI2028
aI5682
aI2902
aI8928
aI2473
aI1843
aI8769
aI1772
aI2585
aI7155
aI3036
aI3989
aI6918
aI4331
aI5050
aI1305
aI7544
aI4796
aI1793
aI9811
aI7498
aI5312
aI1202
aI6547
aI3423
aI7632
aI1122
aI7508
aI621
aI7102
aI2417
aI8098
aI10067
aI4933
aI190
aI965
aI3144
aI1992
aI5820
aI6168
aI1538
aI10080
aI7197
aI2193
aI7868
aI7012
aI5227
aI3594
aI10277
aI1127
aI4924
aI16
aI5738
aI8724
aI3630
aI4051
aI6346
aI6020
aI5362
aI9681
aI8491
aI1800
aI6627
aI9051
aI3904
aI9358
aI7362
aI6316
aI7253
aI3103
aI10086
aI7010
aI10189
aI5655
aI9764
aI1859
aI3757
aI9526
aI9062
aI351
aI9766
aI7596
aI8510
aI2676
aI6896
aI1866
aI1448
aI2551
aI6968
aI1601
aI5724
aI4409
aI1981
aI2098
aI1226
aI5272
aI71
aI8356
aI7515
aI4232
aI5708
aI2666
aI8448
aI9994
aI5596
aI6501
aI3628
aI5786
aI7423
aI3318
aI4316
aI62
aI1465
aI7022
aI5383
aI5032
aI1718
aI9677
aI7383
aI4622
aI6119
aI2421
aI9309
aI7165
aI4288
aI4751
aI5407
aI2050
aI6928
aI4941
aI4643
aI7885
aI73
aI9602
aI4277
aI5002
aI3958
aI4827
aI391
aI8381
aI225
aI1141
aI483
aI682
aI2471
aI69
aI35
aI5573
aI5653
aI498
aI6451
aI3652
aI4744
aI1722
aI2041
aI978
aI10220
aI1364
aI4967
aI6496
aI709
aI4207
aI7304
aI831
aI6938
aI6744
aI2876
aI9052
aI4849
aI2767
aI3548
aI2956
aI1823
aI9802
aI6447
aI1635
aI8591
aI2709
aI9867
aI5481
aI1834
aI4370
aI7331
aI7914
aI2435
aI9944
aI9878
aI1366
aI3572
aI935
aI18
aI3531
aI8440
aI5934
aI7445
aI384
aI5866
aI65
aI5316
aI5531
aI329
aI9333
aI476
aI6287
aI1339
aI352
aI562
aI3031
aI3347
aI8871
aI265
aI1618
aI2132
aI10178
aI2564
aI4038
aI479
aI925
aI2301
aI2177
aI4581
aI8256
aI2879
aI2864
aI9672
aI9153
aI6003
aI7926
aI59
aI1752
aI181
aI3587
aI4347
aI7167
aI1287
aI5287
aI3719
aI2514
aI4155
aI137
aI9390
aI9740
aI7823
aI6829
aI5507
aI3986
aI2631
aI7268
aI1547
aI5200
aI6538
aI2659
aI98
aI3860
aI214
aI180
aI9821
aI135
aI3391
aI3130
aI7374
aI7209
aI134
aI7685
aI5360
aI327
aI8951
aI6386
aI6796
aI3871
aI7422
aI9469
aI695
aI5595
aI2766
aI1135
aI2927
aI4955
aI3598
aI3138
aI4704
aI779
aI5150
aI6914
aI255
aI905
aI1221
aI6828
aI2144
aI2279
aI2452
aI624
aI4552
aI378
aI1437
aI9050
aI8415
aI7274
aI414
aI1371
aI7580
aI6460
aI7530
aI6487
aI6214
aI8290
aI5162
aI2368
aI2248
aI8386
aI6911
aI8299
aI6671
aI6653
aI7934
aI6589
aI2244
aI2707
aI6160
aI3846
aI3528
aI2384
aI8409
aI1990
aI1621
aI6458
aI23
aI7891
aI6026
aI3933
aI2862
aI7748
aI5500
aI851
aI3819
aI3436
aI7869
aI6580
aI8538
aI5965
aI9149
aI8260
aI2250
aI1523
aI5779
aI873
aI9265
aI3464
aI10271
aI3163
aI175
aI6448
aI7420
aI3564
aI499
aI8710
aI6245
aI9402
aI1353
aI3697
aI5030
aI5667
aI7000
aI3972
aI9328
aI169
aI8579
aI4058
aI8794
aI8140
aI1939
aI2778
aI4980
aI7464
aI4147
aI2121
aI3790
aI3962
aI431
aI3021
aI40
aI7186
aI4251
aI3727
aI4875
aI9797
aI7735
aI5908
aI4846
aI4982
aI5447
aI897
aI9364
aI8649
aI6221
aI6288
aI4878
aI10106
aI2495
aI6661
aI2294
aI6608
aI9126
aI7227
aI5615
aI7238
aI8232
aI6541
aI1325
aI6869
aI5665
aI1551
aI4274
aI6417
aI2550
aI4677
aI9537
aI2476
aI5409
aI10078
aI246
aI8473
aI8821
aI3583
aI927
aI9703
aI3580
aI3656
aI6155
aI6349
aI2280
aI8382
aI9311
aI1195
aI4054
aI4134
aI100
aI3935
aI6597
aI4586
aI2653
aI3233
aI5049
aI1124
aI4748
aI9053
aI1262
aI5960
aI3831
aI7243
aI943
aI918
aI2470
aI4102
aI7042
aI6236
aI2349
aI7353
aI699
aI7258
aI8517
aI3189
aI5995
aI4108
aI9417
aI304
aI10111
aI3040
aI4737
aI7410
aI5670
aI2485
aI8823
aI5541
aI402
aI6816
aI5700
aI9890
aI6002
aI3405
aI6179
aI4013
aI2754
aI2769
aI7343
aI6051
aI8955
aI7416
aI1294
aI813
aI9705
aI9079
aI9892
aI9853
aI9980
aI6264
aI8943
aI2199
aI3128
aI3068
aI2746
aI6550
aI1905
aI988
aI9242
aI8592
aI5563
aI3058
aI10076
aI7223
aI979
aI8154
aI2597
aI10134
aI7551
aI5543
aI1477
aI2263
aI3199
aI3849
aI8803
aI4523
aI4343
aI6270
aI989
aI8905
aI3953
aI5913
aI7754
aI2945
aI3402
aI2429
aI9765
aI1408
aI6843
aI7969
aI6228
aI4495
aI1363
aI8691
aI4033
aI6917
aI21
aI9340
aI6887
aI10232
aI7811
aI6461
aI3311
aI9808
aI2559
aI6413
aI1542
aI4503
aI7762
aI2430
aI5553
aI9828
aI5139
aI6392
aI5138
aI1867
aI7472
aI6683
aI8665
aI2510
aI2883
aI8574
aI3597
aI3024
aI7245
aI10279
aI9543
aI9524
aI4249
aI3159
aI8257
aI310
aI880
aI3753
aI3015
aI4927
aI9305
aI6669
aI1342
aI1080
aI4284
aI7476
aI8395
aI1157
aI2000
aI10263
aI9090
aI2663
aI3356
aI3894
aI1625
aI9885
aI10155
aI6490
aI4886
aI5096
aI8696
aI2256
aI6429
aI8768
aI2023
aI3220
aI1128
aI6886
aI5546
aI2052
aI3629
aI4298
aI8722
aI2370
aI140
aI4107
aI6830
aI8287
aI3617
aI7844
aI521
aI6768
aI7059
aI6775
aI1757
aI5001
aI569
aI9774
aI9517
aI9539
aI6900
aI7550
aI8913
aI1397
aI8906
aI8245
aI868
aI2015
aI9292
aI8112
aI9860
aI7993
aI7920
aI8841
aI827
aI4152
aI8756
aI6871
aI3259
aI4706
aI983
aI101
aI8535
aI6733
aI929
aI9386
aI4468
aI2456
aI4292
aI9505
aI2185
aI10132
aI5018
aI5918
aI5185
aI1597
aI3780
aI7201
aI4424
aI9948
aI2982
aI473
aI9178
aI2904
aI9230
aI7474
aI2894
aI6050
aI1398
aI468
aI4674
aI5424
aI8169
aI108
aI9707
aI9194
aI9385
aI9399
aI9746
aI4616
aI6059
aI8122
aI3446
aI3729
aI6440
aI9109
aI4789
aI4459
aI5042
aI2988
aI224
aI6779
aI2468
aI4168
aI823
aI3981
aI2673
aI5807
aI6761
aI4266
aI5809
aI299
aI4341
aI8866
aI1951
aI5338
aI1532
aI4852
aI83
aI8660
aI7220
aI6204
aI4659
aI3740
aI10187
aI1059
aI7499
aI1832
aI3698
aI1137
aI9193
aI7254
aI10064
aI9842
aI9125
aI8804
aI7112
aI5886
aI3671
aI6527
aI6242
aI8971
aI6992
aI3388
aI812
aI9838
aI5540
aI4440
aI7954
aI7193
aI6122
aI5418
aI7630
aI2320
aI5255
aI9670
aI4376
aI2683
aI2708
aI5427
aI3207
aI756
aI6552
aI8249
aI7108
aI1039
aI188
aI2405
aI7897
aI6153
aI5234
aI7301
aI2974
aI10012
aI6776
aI7543
aI3999
aI4069
aI8021
aI9454
aI792
aI5302
aI9837
aI732
aI77
aI5392
aI4539
aI3133
aI263
aI2354
aI10228
aI9933
aI5490
aI5640
aI7125
aI3127
aI1168
aI2182
aI8681
aI8255
aI3571
aI7621
aI8352
aI8434
aI2444
aI4884
aI9299
aI5251
aI4608
aI2613
aI7710
aI7562
aI626
aI9246
aI3730
aI4243
aI2055
aI2639
aI2749
aI7784
aI875
aI6000
aI2969
aI8325
aI9096
aI8663
aI1439
aI3264
aI888
aI6987
aI801
aI5889
aI8572
aI7320
aI6443
aI5668
aI4462
aI9064
aI900
aI424
aI88
aI7654
aI4395
aI3481
aI3169
aI2764
aI820
aI8456
aI7468
aI5145
aI839
aI3931
aI5216
aI7030
aI9807
aI1210
aI3086
aI5775
aI9371
aI4881
aI4182
aI8443
aI3867
aI828
aI3554
aI6534
aI5488
aI582
aI5298
aI9042
aI4202
aI2184
aI6107
aI2966
aI2533
aI1631
aI4891
aI3521
aI3506
aI4634
aI1976
aI6333
aI9533
aI1289
aI1734
aI3444
aI8825
aI2440
aI2399
aI5065
aI5735
aI7381
aI8173
aI7989
aI6078
aI5767
aI5980
aI8458
aI7536
aI9745
aI8457
aI6721
aI3066
aI4335
aI245
aI5270
aI9220
aI8550
aI117
aI741
aI9884
aI5659
aI1563
aI5578
aI9549
aI1996
aI5078
aI2234
aI5521
aI4297
aI8785
aI4257
aI3917
aI3361
aI7052
aI1798
aI5939
aI6558
aI31
aI2289
aI9228
aI8720
aI2610
aI7561
aI6563
aI274
aI2665
aI4985
aI4319
aI6850
aI8505
aI5883
aI696
aI9514
aI509
aI1704
aI9429
aI5044
aI8472
aI6848
aI9067
aI5611
aI5962
aI9804
aI3688
aI4416
aI7684
aI9757
aI3965
aI6867
aI6892
aI753
aI7763
aI5181
aI5179
aI10269
aI3415
aI4323
aI3678
aI9661
aI5402
aI1964
aI8339
aI6741
aI3997
aI7236
aI2857
aI1130
aI8664
aI3842
aI5737
aI3152
aI2304
aI6435
aI5907
aI6617
aI258
aI9055
aI3827
aI8618
aI1944
aI9170
aI3439
aI3991
aI2237
aI5826
aI48
aI9883
aI3771
aI9044
aI285
aI5904
aI55
aI9342
aI2787
aI4299
aI4254
aI9550
aI9099
aI8991
aI330
aI5156
aI5271
aI9048
aI754
aI4002
aI7696
aI2391
aI6720
aI4136
aI4604
aI2575
aI3592
aI7825
aI3663
aI2678
aI3764
aI2358
aI7835
aI7800
aI4191
aI3282
aI967
aI9392
aI1788
aI5309
aI3590
aI7986
aI5695
aI6154
aI3503
aI8385
aI9946
aI8639
aI7425
aI4915
aI8590
aI8568
aI7006
aI2305
aI9579
aI8900
aI10056
aI9645
aI4112
aI6939
aI3607
aI5544
aI5938
aI3801
aI4536
aI3348
aI3959
aI2905
aI4507
aI9331
aI6396
aI7849
aI5264
aI4979
aI42
aI7200
aI5061
aI3012
aI9172
aI10087
aI2651
aI8776
aI4663
aI8294
aI7727
aI6542
aI4588
aI2954
aI1537
aI193
aI7259
aI5550
aI4650
aI466
aI6029
aI6400
aI293
aI9679
aI3800
aI1232
aI783
aI2171
aI2674
aI2660
aI9249
aI2007
aI9238
aI8119
aI4656
aI9463
aI7310
aI7626
aI6137
aI2584
aI3950
aI8087
aI9101
aI2140
aI8534
aI5278
aI9192
aI10066
aI2086
aI543
aI941
aI1658
aI6457
aI9325
aI2734
aI5169
aI4183
aI4218
aI1615
aI9983
aI366
aI5551
aI2650
aI5356
aI2133
aI6945
aI6225
aI2538
aI2186
aI5323
aI10009
aI9406
aI4965
aI596
aI3333
aI5577
aI6464
aI1441
aI7084
aI8143
aI3748
aI2605
aI7096
aI2333
aI1009
aI4767
aI2935
aI1488
aI564
aI4627
aI5581
aI3585
aI9982
aI9199
aI8860
aI262
aI5394
aI4333
aI9749
aI369
aI571
aI5610
aI5923
aI1093
aI7145
aI6667
aI3461
aI7055
aI2095
aI6706
aI6286
aI6063
aI311
aI7917
aI1388
aI7603
aI7768
aI3261
aI5461
aI749
aI9124
aI886
aI333
aI342
aI3353
aI8244
aI8910
aI6650
aI535
aI7670
aI5503
aI2028
aI5682
aI2902
aI8928
aI2473
aI1843
aI8769
aI1772
aI2585
aI7155
aI3036
aI3989
aI6918
aI4331
aI5050
aI1305
aI7544
aI4796
aI1793
aI9811
aI7498
aI5312
aI1202
aI6547
aI3423
aI7632
aI1122
aI7508
aI621
aI7102
aI2417
aI8098
aI10067
aI4933
aI190
aI965
aI3144
aI1992
aI5820
aI6168
aI1538
aI10080
aI7197
aI2193
aI7868
aI7012
aI5227
aI3594
aI10277
aI1127
aI4924
aI16
aI5738
aI8724
aI3630
aI4051
aI6346
aI6020
aI5362
aI9681
aI8491
aI1800
aI6627
aI9051
aI3904
aI9358
aI7362
aI6316
aI7253
aI3103
aI10086
aI7010
aI10189
aI5655
aI9764
aI1859
aI3757
aI9526
aI9062
aI351
aI9766
aI7596
aI8510
aI2676
aI6896
aI1866
aI1448
aI2551
aI6968
aI1601
aI5724
aI4409
aI1981
aI2098
aI1226
aI5272
aI71
aI8356
aI7515
aI4232
aI5708
aI2666
aI8448
aI9994
aI5596
aI6501
aI3628
aI5786
aI7423
aI3318
aI4316
aI62
aI1465
aI7022
aI5383
aI5032
aI1718
aI9677
aI7383
aI4622
aI6119
aI2421
aI9309
aI7165
aI4288
aI4751
aI5407
aI2050
aI6928
aI4941
aI4643
aI7885
aI73
aI9602
aI4277
aI5002
aI3958
aI4827
aI391
aI8381
aI225
aI1141
aI483
aI682
aI2471
aI69
aI35
aI5573
aI5653
aI498
aI6451
aI3652
aI4744
aI1722
aI2041
aI978
aI10220
aI1364
aI4967
aI6496
aI709
aI4207
aI7304
aI831
aI6938
aI6744
aI2876
aI9052
aI4849
aI2767
aI3548
aI2956
aI1823
aI9802
aI6447
aI1635
aI8591
aI2709
aI9867
aI5481
aI1834
aI4370
aI7331
aI7914
aI2435
aI9944
aI9878
aI1366
aI3572
aI935
aI18
aI3531
aI8440
aI5934
aI7445
aI384
aI5866
aI65
aI5316
aI5531
aI329
aI9333
aI476
aI6287
aI1339
aI352
aI562
aI3031
aI3347
aI8871
aI265
aI1618
aI2132
aI10178
aI2564
aI4038
aI479
aI925
aI2301
aI2177
aI4581
aI8256
aI2879
aI2864
aI9672
aI9153
aI6003
aI7926
aI59
aI1752
aI181
aI3587
aI4347
aI7167
aI1287
aI5287
aI3719
aI2514
aI4155
aI137
aI9390
aI9740
aI7823
aI6829
aI5507
aI3986
aI2631
aI7268
aI1547
aI5200
aI6538
aI2659
aI98
aI3860
aI214
aI180
aI9821
aI135
aI3391
aI3130
aI7374
aI7209
aI134
aI7685
aI5360
aI327
aI8951
aI6386
aI6796
aI3871
aI7422
aI9469
aI695
aI5595
aI2766
aI1135
aI2927
aI4955
aI3598
aI3138
aI4704
aI779
aI5150
aI6914
aI255
aI905
aI1221
aI6828
aI2144
aI2279
aI2452
aI624
aI4552
aI378
aI1437
aI9050
aI8415
aI7274
aI414
aI1371
aI7580
aI6460
aI7530
aI6487
aI6214
aI8290
aI5162
aI2368
aI2248
aI8386
aI6911
aI8299
aI6671
aI6653
aI7934
aI6589
aI2244
aI2707
aI6160
aI3846
aI3528
aI2384
aI8409
aI1990
aI1621
aI6458
aI23
aI7891
aI6026
aI3933
aI2862
aI7748
aI5500
aI851
aI3819
aI3436
aI7869
aI6580
aI8538
aI5965
aI9149
aI8260
aI2250
aI1523
aI5779
aI873
aI9265
aI3464
aI10271
aI3163
aI175
aI6448
aI7420
aI3564
aI499
aI8710
aI6245
aI9402
aI1353
aI3697
aI5030
aI5667
aI7000
aI3972
aI9328
aI169
aI8579
aI4058
aI8794
aI8140
aI1939
aI2778
aI4980
aI7464
aI4147
aI2121
aI3790
aI3962
aI431
aI3021
aI40
aI7186
aI4251
aI3727
aI4875
aI9797
aI7735
aI5908
aI4846
aI4982
aI5447
aI897
aI9364
aI8649
aI6221
aI6288
aI4878
aI10106
aI2495
aI6661
aI2294
aI6608
aI9126
aI7227
aI5615
aI7238
aI8232
aI6541
aI1325
aI6869
aI5665
aI1551
aI4274
aI6417
aI2550
aI4677
aI9537
aI2476
aI5409
aI10078
aI246
aI8473
aI8821
aI3583
aI927
aI9703
aI3580
aI3656
aI6155
aI6349
aI2280
aI8382
aI9311
aI1195
aI4054
aI4134
aI100
aI3935
aI6597
aI4586
aI2653
aI3233
aI5049
aI1124
aI4748
aI9053
aI1262
aI5960
aI3831
aI7243
aI943
aI918
aI2470
aI4102
aI7042
aI6236
aI2349
aI7353
aI699
aI7258
aI8517
aI3189
aI5995
aI4108
aI9417
aI304
aI10111
aI3040
aI4737
aI7410
aI5670
aI2485
aI8823
aI5541
aI402
aI6816
aI5700
aI9890
aI6002
aI3405
aI6179
aI4013
aI2754
aI2769
aI7343
aI6051
aI8955
aI7416
aI1294
aI813
aI9705
aI9079
aI9892
aI9853
aI9980
aI6264
aI8943
aI2199
aI3128
aI3068
aI2746
aI6550
aI1905
aI988
aI9242
aI8592
aI5563
aI3058
aI10076
aI7223
aI979
aI8154
aI2597
aI10134
aI7551
aI5543
aI1477
aI2263
aI3199
aI3849
aI8803
aI4523
aI4343
aI6270
aI989
aI8905
aI3953
aI5913
aI7754
aI2945
aI3402
aI2429
aI9765
aI1408
aI6843
aI7969
aI6228
aI4495
aI1363
aI8691
aI4033
aI6917
aI21
aI9340
aI6887
aI10232
aI7811
aI6461
aI3311
aI9808
aI2559
aI6413
aI1542
aI4503
aI7762
aI2430
aI5553
aI9828
aI5139
aI6392
aI5138
aI1867
aI7472
aI6683
aI8665
aI2510
aI2883
aI8574
aI3597
aI3024
aI7245
aI10279
aI9543
aI9524
aI4249
aI3159
aI8257
aI310
aI880
aI3753
aI3015
aI4927
aI9305
aI6669
aI1342
aI1080
aI4284
aI7476
aI8395
aI1157
aI2000
aI10263
aI9090
aI2663
aI3356
aI3894
aI1625
aI9885
aI10155
aI6490
aI4886
aI5096
aI8696
aI2256
aI6429
aI8768
aI2023
aI3220
aI1128
aI6886
aI5546
aI2052
aI3629
aI4298
aI8722
aI2370
aI140
aI4107
aI6830
aI8287
aI3617
aI7844
aI521
aI6768
aI7059
aI6775
aI1757
aI5001
aI569
aI9774
aI9517
aI9539
aI6900
aI7550
aI8913
aI1397
aI8906
aI8245
aI868
aI2015
aI9292
aI8112
aI9860
aI7993
aI7920
aI8841
aI827
aI4152
aI8756
aI6871
aI3259
aI4706
aI983
aI101
aI8535
aI6733
aI929
aI9386
aI4468
aI2456
aI4292
aI9505
aI2185
aI10132
aI5018
aI5918
aI5185
aI1597
aI3780
aI7201
aI4424
aI9948
aI2982
aI473
aI9178
aI2904
aI9230
aI7474
aI2894
aI6050
aI1398
aI468
aI4674
aI5424
aI8169
aI108
aI9707
aI9194
aI9385
aI9399
aI9746
aI4616
aI6059
aI8122
aI3446
aI3729
aI6440
aI9109
aI4789
aI4459
aI5042
aI2988
aI224
aI6779
aI2468
aI4168
aI823
aI3981
aI2673
aI5807
aI6761
aI4266
aI5809
aI299
aI4341
aI8866
aI1951
aI5338
aI1532
aI4852
aI83
aI8660
aI7220
aI6204
aI4659
aI3740
aI10187
aI1059
aI7499
aI1832
aI3698
aI1137
aI9193
aI7254
aI10064
aI9842
aI9125
aI8804
aI7112
aI5886
aI3671
aI6527
aI6242
aI8971
aI6992
aI3388
aI812
aI9838
aI5540
aI4440
aI7954
aI7193
aI6122
aI5418
aI7630
aI2320
aI5255
aI9670
aI4376
aI2683
aI2708
aI5427
aI3207
aI756
aI6552
aI8249
aI7108
aI1039
aI188
aI2405
aI7897
aI6153
aI5234
aI7301
aI2974
aI10012
aI6776
aI7543
aI3999
aI4069
aI8021
aI9454
aI792
aI5302
aI9837
aI732
aI77
aI5392
aI4539
aI3133
aI263
aI2354
aI10228
aI9933
aI5490
aI5640
aI7125
aI3127
aI1168
aI2182
aI8681
aI8255
aI3571
aI7621
aI8352
aI8434
aI2444
aI4884
aI9299
aI5251
aI4608
aI2613
aI7710
aI7562
aI626
aI9246
aI3730
aI4243
aI2055
aI2639
aI2749
aI7784
aI875
aI6000
aI2969
aI8325
aI9096
aI8663
aI1439
aI3264
aI888
aI6987
aI801
aI5889
aI8572
aI7320
aI6443
aI5668
aI4462
aI9064
aI900
aI424
aI88
aI7654
aI4395
aI3481
aI3169
aI2764
aI820
aI8456
aI7468
aI5145
aI839
aI3931
aI5216
aI7030
aI9807
aI1210
aI3086
aI5775
aI9371
aI4881
aI4182
aI8443
aI3867
aI828
aI3554
aI6534
aI5488
aI582
aI5298
aI9042
aI4202
aI2184
aI6107
aI2966
aI2533
aI1631
aI4891
aI3521
aI3506
aI4634
aI1976
aI6333
aI9533
aI1289
aI1734
aI3444
aI8825
aI2440
aI2399
aI5065
aI5735
aI7381
aI8173
aI7989
aI6078
aI5767
aI5980
aI8458
aI7536
aI9745
aI8457
aI6721
aI3066
aI4335
aI245
aI5270
aI9220
aI8550
aI117
aI741
aI9884
aI5659
aI1563
aI5578
aI9549
aI1996
aI5078
aI2234
aI5521
aI4297
aI8785
aI4257
aI3917
aI3361
aI7052
aI1798
aI5939
aI6558
aI31
aI2289
aI9228
aI8720
aI2610
aI7561
aI6563
aI274
aI2665
aI4985
aI4319
aI6850
aI8505
aI5883
aI696
aI9514
aI509
aI1704
aI9429
aI5044
aI8472
aI6848
aI9067
aI5611
aI5962
aI9804
aI3688
aI4416
aI7684
aI9757
aI3965
aI6867
aI6892
aI753
aI7763
aI5181
aI5179
aI10269
aI3415
aI4323
aI3678
aI9661
aI5402
aI1964
aI8339
aI6741
aI3997
aI7236
aI2857
aI1130
aI8664
aI3842
aI5737
aI3152
aI2304
aI6435
aI5907
aI6617
aI9558
aI9423
aI8959
aI7744
aI8805
aI7100
aI4345
aI6247
aI2466
aI2109
aI3817
aI6944
aI1973
aI10032
aI6358
aI202
aI7395
aI8130
aI4317
aI6162
aI1430
aI5547
aI2977
aI2612
aI6165
aI9038
aI864
aI1444
aI1873
aI3034
aI4193
aI7257
aI53
aI6505
aI8996
aI7972
aI2081
aI6093
aI3418
aI7237
aI4366
aI5954
aI9162
aI3091
aI5890
aI8101
aI8162
aI5158
aI9937
aI3779
aI1786
aI8120
aI9383
aI5489
aI218
aI9906
aI2662
aI5301
aI3397
aI5590
aI1099
aI5555
aI6353
aI9840
aI8484
aI8288
aI30
aI7662
aI9361
aI4628
aI6135
aI6011
aI9347
aI3537
aI9795
aI2984
aI5958
aI2030
aI5432
aI603
aI7234
aI2152
aI385
aI5241
aI6080
aI3480
aI1863
aI5276
aI4551
aI1313
aI9784
aI4563
aI7699
aI619
aI5711
aI10255
aI9382
aI8347
aI9586
aI6588
aI2013
aI4614
aI6418
aI5431
aI5823
aI1828
aI9451
aI5871
aI7215
aI4740
aI5177
aI5160
aI7429
aI5189
aI8867
aI6545
aI6941
aI1620
aI2996
aI6662
aI554
aI4110
aI1485
aI7786
aI8414
aI1281
aI2278
aI4848
aI9592
aI2532
aI1760
aI4116
aI3454
aI4487
aI10129
aI7600
aI1520
aI5466
aI9477
aI7278
aI8322
aI6449
aI2851
aI6343
aI9069
aI4826
aI5832
aI1440
aI1409
aI803
aI4509
aI4238
aI1152
aI184
aI837
aI3530
aI2793
aI9830
aI1652
aI6357
aI7033
aI6211
aI1180
aI2955
aI765
aI3409
aI3293
aI3147
aI1490
aI4869
aI5142
aI4009
aI8134
aI3048
aI4972
aI5151
aI3026
aI3648
aI341
aI4715
aI2916
aI8718
aI1036
aI8132
aI422
aI2513
aI4774
aI7050
aI1574
aI2274
aI8085
aI1169
aI2617
aI4865
aI6980
aI8843
aI4472
aI3915
aI9682
aI9426
aI6282
aI4106
aI3219
aI7884
aI9958
aI5153
aI6432
aI1155
aI5268
aI579
aI2718
aI9134
aI3262
aI2165
aI9141
aI9898
aI5576
aI2960
aI838
aI7325
aI10256
aI5880
aI5084
aI7403
aI4228
aI3306
aI5696
aI3704
aI8560
aI10
aI3236
aI1679
aI6660
aI10127
aI297
aI2944
aI273
aI1442
aI758
aI10030
aI5774
aI2245
aI2753
aI10118
aI10071
aI8990
aI5101
aI5679
aI8898
aI2089
aI7918
aI7397
aI6091
aI3069
aI4061
aI6033
aI9658
aI4629
aI7443
aI9758
aI6144
aI5416
aI5629
aI6399
aI2336
aI10197
aI9571
aI6520
aI9218
aI10161
aI1791
aI4143
aI9704
aI2009
aI9809
aI7213
aI5444
aI6986
aI4281
aI1345
aI5110
aI1948
aI4380
aI5217
aI3814
aI374
aI9435
aI4105
aI8986
aI1445
aI7983
aI9598
aI5074
aI7386
aI2494
aI2117
aI6031
aI9803
aI2946
aI3602
aI9960
aI9565
aI3307
aI9225
aI336
aI5277
aI9649
aI6783
aI527
aI5741
aI3085
aI2747
aI4896
aI2149
aI1145
aI7589
aI1499
aI13
aI5260
aI1853
aI4613
aI9345
aI6951
aI10128
aI969
aI8865
aI28
aI613
aI9935
aI8084
aI6278
aI7230
aI3155
aI7198
aI3080
aI1894
aI952
aI3806
aI750
aI4960
aI3558
aI2270
aI3323
aI1989
aI6291
aI2203
aI8628
aI3328
aI7226
aI5310
aI1564
aI7144
aI3726
aI5808
aI10200
aI5811
aI8935
aI3466
aI4053
aI1586
aI2546
aI6554
aI7511
aI416
aI6812
aI7839
aI8653
aI5772
aI2031
aI4942
aI2572
aI4977
aI8650
aI2963
aI4970
aI7842
aI2412
aI4981
aI9818
aI4695
aI2633
aI4984
aI7951
aI4142
aI4609
aI3167
aI4025
aI4966
aI3497
aI1389
aI799
aI4086
aI529
aI2973
aI3683
aI1006
aI7579
aI387
aI7471
aI2995
aI8354
aI7418
asS'attributi'
p8
(lp9
I0
aI1
aI2
aI3
aI4
aI5
aI6
aI7
aI8
aI9
aI10
aI11
aI12
aI13
aI14
aI15
aI16
aI17
aI18
aI19
aI20
aI21
aI22
aI23
aI24
aI25
aI26
aI27
aI28
aI29
aI30
aI31
aI32
aI33
aI34
aI35
aI36
aI37
aI38
aI39
aI40
aI41
aI42
aI43
aI44
aI45
aI46
aI47
aI48
aI49
aI50
aI51
aI52
aI53
aI54
aI55
aI56
aI57
aI58
aI59
aI60
aI61
aI62
aI63
aI64
aI65
aI66
aI67
aI68
aI69
aI70
aI71
aI72
aI73
aI74
aI75
aI76
aI77
aI78
aI79
aI80
aI81
aI82
aI83
aI84
aI85
aI86
aI87
aI88
aI89
aI90
aI91
aI92
aI93
aI94
aI95
aI96
aI97
aI98
aI99
aI100
aI101
aI102
aI103
aI104
aI105
aI106
aI107
aI108
aI109
aI110
aI111
aI112
aI113
aI114
aI115
aI116
aI117
aI118
aI119
aI120
aI121
aI122
aI123
aI124
aI125
aI126
aI127
aI128
aI129
aI130
aI131
aI132
aI133
aI134
aI135
aI136
aI137
aI138
aI139
aI140
aI141
aI142
aI143
aI144
aI145
aI146
aI147
aI148
aI149
aI150
aI151
aI152
aI153
aI154
aI155
aI156
aI157
aI158
aI159
aI160
aI161
aI162
aI163
aI164
aI165
aI166
aI167
aI168
aI169
aI170
aI171
aI172
aI173
aI174
aI175
aI176
aI177
aI178
aI179
aI180
aI181
aI182
aI183
aI184
aI185
aI186
aI187
aI188
aI189
aI190
aI191
aI192
aI193
aI194
aI195
aI196
aI197
aI198
aI199
aI200
aI201
aI202
aI203
aI204
aI205
aI206
aI207
aI208
aI209
aI210
aI211
aI212
aI213
aI214
aI215
aI216
aI217
aI218
aI219
aI220
aI221
aI222
aI223
aI224
aI225
aI226
aI227
aI228
aI229
aI230
aI231
aI232
aI233
aI234
aI235
aI236
aI237
aI238
aI239
aI240
aI241
aI242
aI243
aI244
aI245
aI246
aI247
aI248
aI249
aI250
aI251
aI252
aI253
aI254
aI255
aI256
aI257
aI258
aI259
aI260
aI261
aI262
aI263
aI264
aI265
aI266
aI267
aI268
aI269
aI270
aI271
aI272
aI273
aI274
aI275
aI276
aI277
aI278
aI279
aI280
aI281
aI282
aI283
aI284
aI285
aI286
aI287
aI288
aI289
aI290
aI291
aI292
aI293
aI294
aI295
aI296
aI297
aI298
aI299
aI300
aI301
aI302
aI303
aI304
aI305
aI306
aI307
aI308
aI309
aI310
aI311
aI312
aI313
aI314
aI315
aI316
aI317
aI318
aI319
aI320
aI321
aI322
aI323
aI324
aI325
aI326
aI327
aI328
aI329
aI330
aI331
aI332
aI333
aI334
aI335
aI336
aI337
aI338
aI339
aI340
aI341
aI342
aI343
aI344
aI345
aI346
aI347
aI348
aI349
aI350
aI351
aI352
aI353
aI354
aI355
aI356
aI357
aI358
aI359
aI360
aI361
aI362
aI363
aI364
aI365
aI366
aI367
aI368
aI369
aI370
aI371
aI372
aI373
aI374
aI375
aI376
aI377
aI378
aI379
aI380
aI381
aI382
aI383
aI384
aI385
aI386
aI387
aI388
aI389
aI390
aI391
aI392
aI393
aI394
aI395
aI396
aI397
aI398
aI399
aI400
asg4
g5
s.