(lp0
((lp1
I1
aI2
aI5
aI12
aI76
aI3264
(lp2
I3295
aI6232
aI4880
aI7752
aI3294
atp3
a(g1
I999
(lp4
I1323
aI10187
aI39
aI5645
aI798
atp5
a(g1
I2504
(lp6
I3664
aI1584
aI3631
aI3727
aI9396
atp7
a(g1
I8042
(lp8
I5457
aI2449
aI9050
aI9822
aI8681
atp9
a(g1
I7837
(lp10
I6144
aI2746
aI1371
aI2161
aI2726
atp11
a(g1
I3686
(lp12
I7014
aI1909
aI8046
aI367
aI801
atp13
a(g1
I3433
(lp14
I4622
aI9816
aI9562
aI2674
aI4911
atp15
a(g1
I4011
(lp16
I8968
aI1945
aI7427
aI4427
aI4756
atp17
a(g1
I8956
(lp18
I6561
aI1174
aI4393
aI3217
aI8367
atp19
a(g1
I8513
(lp20
I682
aI834
aI4523
aI8315
aI738
atp21
a(g1
I2753
(lp22
I6786
aI7876
aI620
aI4527
aI5563
atp23
a(g1
I6537
(lp24
I4108
aI9459
aI4554
aI6998
aI7704
atp25
a(g1
I9163
(lp26
I5874
aI877
aI1783
aI589
aI4033
atp27
a(g1
I9987
(lp28
I5913
aI804
aI3324
aI1502
aI9446
atp29
a(g1
I4044
(lp30
I2342
aI7752
aI7325
aI3118
aI1086
atp31
a(g1
I5288
(lp32
I8844
aI858
aI7540
aI7592
aI10234
atp33
a(g1
I2945
(lp34
I3939
aI2916
aI1306
aI9901
aI1396
atp35
a(g1
I5923
(lp36
I7848
aI9054
aI3801
aI2479
aI1794
atp37
a(g1
I5415
(lp38
I174
aI6006
aI1335
aI1699
aI9904
atp39
a(g1
I358
(lp40
I6201
aI8971
aI8372
aI1121
aI6680
atp41
a(g1
I357
(lp42
I159
aI7617
aI7074
aI8471
aI9405
atp43
a(g1
I2923
(lp44
I1487
aI6978
aI5200
aI8429
aI3510
atp45
a(g1
I3667
(lp46
I3278
aI6000
aI3153
aI4452
aI7530
atp47
a(g1
I6033
(lp48
I8256
aI4333
aI4093
aI9656
aI3020
atp49
a(g1
I10063
(lp50
I10203
aI3063
aI8210
aI9331
aI8114
atp51
a(g1
I3104
(lp52
I9367
aI4364
aI4989
aI7436
aI1567
atp53
a(g1
I8709
(lp54
I2009
aI4418
aI9205
aI3237
aI2355
atp55
a(g1
I383
(lp56
I3749
aI2744
aI1977
aI9938
aI8794
atp57
a(g1
I1331
(lp58
I4926
aI1860
aI2315
aI557
aI5421
atp59
a(g1
I290
(lp60
I5282
aI666
aI3982
aI3087
aI6289
atp61
a(g1
I7498
(lp62
I8875
aI3702
aI10084
aI9373
aI3720
atp63
a(g1
I2602
(lp64
I3926
aI6370
aI4222
aI6167
aI6451
atp65
a.