(lp0
((lp1
I1
aI2
aI4
aI14
aI51
aI7574
(lp2
I2030
aI8336
aI7090
aI7534
aI1779
atp3
a(g1
I6171
(lp4
I9437
aI7135
aI9290
aI4096
aI3521
atp5
a(g1
I307
(lp6
I9383
aI8819
aI6111
aI7109
aI8309
atp7
a(g1
I4570
(lp8
I646
aI8816
aI685
aI2063
aI7885
atp9
a(g1
I176
(lp10
I6888
aI9268
aI8801
aI941
aI6604
atp11
a(g1
I5546
(lp12
I582
aI1285
aI5682
aI680
aI10130
atp13
a(g1
I8510
(lp14
I901
aI2007
aI8266
aI982
aI5853
atp15
a(g1
I3852
(lp16
I9071
aI9403
aI6035
aI1653
aI5106
atp17
a(g1
I8391
(lp18
I2653
aI1102
aI3944
aI1544
aI4844
atp19
a(g1
I9695
(lp20
I4251
aI2332
aI6180
aI2315
aI3771
atp21
a(g1
I4997
(lp22
I6890
aI822
aI5108
aI3878
aI2997
atp23
a(g1
I9595
(lp24
I9082
aI4106
aI1157
aI2373
aI701
atp25
a(g1
I2152
(lp26
I6395
aI2540
aI8549
aI2345
aI5731
atp27
a(g1
I6545
(lp28
I4400
aI734
aI3710
aI10197
aI7708
atp29
a(g1
I3481
(lp30
I4184
aI7470
aI1283
aI1671
aI6282
atp31
a(g1
I5159
(lp32
I9866
aI6332
aI4250
aI1309
aI6639
atp33
a(g1
I3242
(lp34
I5309
aI10113
aI7493
aI2349
aI9422
atp35
a(g1
I1443
(lp36
I4604
aI3518
aI7717
aI1101
aI10198
atp37
a(g1
I5600
(lp38
I2012
aI2038
aI9460
aI1679
aI3375
atp39
a(g1
I3696
(lp40
I4489
aI5580
aI9140
aI1992
aI6676
atp41
a(g1
I4391
(lp42
I1260
aI8722
aI9013
aI8579
aI1459
atp43
a(g1
I6796
(lp44
I2399
aI3688
aI9950
aI9238
aI10217
atp45
a(g1
I10235
(lp46
I2409
aI2614
aI1774
aI3345
aI2471
atp47
a(g1
I2906
(lp48
I6026
aI7188
aI5689
aI641
aI7582
atp49
a(g1
I773
(lp50
I6184
aI8739
aI2034
aI6306
aI432
atp51
a(g1
I1440
(lp52
I9070
aI3337
aI2737
aI5329
aI1765
atp53
a(g1
I1616
(lp54
I8529
aI3822
aI8805
aI8268
aI5148
atp55
a(g1
I7015
(lp56
I7608
aI3963
aI6602
aI8783
aI4498
atp57
a(g1
I5896
(lp58
I1514
aI6136
aI3007
aI885
aI6375
atp59
a(g1
I3414
(lp60
I2316
aI4371
aI3730
aI5676
aI428
atp61
a(g1
I1790
(lp62
I1800
aI2171
aI9936
aI9316
aI5024
atp63
a(g1
I5062
(lp64
I10188
aI4674
aI6439
aI872
aI2096
atp65
a.