(lp0
((lp1
I1
aI2
aI4
aI14
aI15
aI16
aI51
aI8982
(lp2
I5977
aI8335
aI8711
aI5852
aI2878
aI8592
aI8497
atp3
a(g1
I3935
(lp4
I2999
aI982
aI2973
aI5484
aI2050
aI400
aI8462
atp5
a(g1
I7112
(lp6
I179
aI5469
aI3869
aI492
aI1107
aI216
aI1277
atp7
a(g1
I812
(lp8
I1791
aI9311
aI832
aI1244
aI2799
aI1299
aI5822
atp9
a(g1
I10262
(lp10
I6145
aI8812
aI7169
aI5624
aI2365
aI7990
aI3890
atp11
a(g1
I1612
(lp12
I8164
aI1867
aI8848
aI2149
aI2263
aI8472
aI10074
atp13
a(g1
I3608
(lp14
I2505
aI8766
aI9712
aI275
aI3191
aI3885
aI4248
atp15
a(g1
I2681
(lp16
I9603
aI5769
aI1152
aI931
aI4667
aI4173
aI2521
atp17
a(g1
I4406
(lp18
I6718
aI6948
aI3747
aI8521
aI6311
aI8509
aI4529
atp19
a(g1
I6878
(lp20
I3537
aI2877
aI7589
aI3284
aI7389
aI187
aI5345
atp21
a(g1
I9407
(lp22
I8339
aI3650
aI9814
aI7056
aI5587
aI1843
aI8276
atp23
a(g1
I7776
(lp24
I2408
aI6837
aI8765
aI7021
aI2936
aI5090
aI9419
atp25
a(g1
I314
(lp26
I9310
aI8428
aI2004
aI7943
aI10155
aI9510
aI1063
atp27
a(g1
I5652
(lp28
I9484
aI4145
aI9961
aI6237
aI1172
aI3742
aI6213
atp29
a(g1
I9237
(lp30
I4268
aI2564
aI512
aI1557
aI931
aI8714
aI9123
atp31
a(g1
I5095
(lp32
I7517
aI7563
aI4865
aI3762
aI3320
aI9933
aI9137
atp33
a(g1
I8502
(lp34
I5221
aI1044
aI5361
aI6878
aI42
aI1012
aI3506
atp35
a(g1
I5134
(lp36
I2905
aI6962
aI1631
aI1202
aI7849
aI9311
aI3078
atp37
a(g1
I3092
(lp38
I1165
aI8636
aI4373
aI7973
aI5078
aI5257
aI3023
atp39
a(g1
I9509
(lp40
I2194
aI5127
aI2645
aI1432
aI3222
aI4142
aI4386
atp41
a(g1
I2811
(lp42
I9062
aI6254
aI7220
aI3870
aI3563
aI6969
aI5904
atp43
a(g1
I8066
(lp44
I1137
aI3412
aI4630
aI8011
aI19
aI8787
aI2076
atp45
a(g1
I8607
(lp46
I1382
aI7966
aI10098
aI2534
aI557
aI3622
aI7790
atp47
a(g1
I6159
(lp48
I5847
aI1719
aI1820
aI149
aI8052
aI7343
aI6305
atp49
a(g1
I5439
(lp50
I2480
aI1162
aI9574
aI9863
aI4186
aI4832
aI3035
atp51
a(g1
I8044
(lp52
I9558
aI313
aI7077
aI1727
aI6458
aI1762
aI6511
atp53
a(g1
I8033
(lp54
I1064
aI3021
aI523
aI8845
aI7040
aI9906
aI5119
atp55
a(g1
I5034
(lp56
I3635
aI583
aI1545
aI3151
aI9662
aI8410
aI3515
atp57
a(g1
I5097
(lp58
I3270
aI8917
aI1588
aI7321
aI3611
aI3716
aI8441
atp59
a(g1
I1779
(lp60
I370
aI1418
aI6158
aI8317
aI5852
aI389
aI1490
atp61
a(g1
I831
(lp62
I5308
aI4047
aI4195
aI6025
aI695
aI8417
aI6081
atp63
a(g1
I5802
(lp64
I5353
aI9503
aI8559
aI5229
aI9193
aI539
aI2091
atp65
a.