(lp0
((lp1
I4
aI14
aI51
aI8175
(lp2
I366
aI6780
aI533
atp3
a(g1
I4280
(lp4
I1457
aI6581
aI4680
atp5
a(g1
I3152
(lp6
I6863
aI5859
aI2095
atp7
a(g1
I3269
(lp8
I7078
aI6131
aI6147
atp9
a(g1
I6635
(lp10
I8361
aI7802
aI2140
atp11
a(g1
I797
(lp12
I4567
aI8362
aI4430
atp13
a(g1
I962
(lp14
I6027
aI7577
aI8018
atp15
a(g1
I6516
(lp16
I8604
aI7918
aI6289
atp17
a(g1
I2164
(lp18
I8878
aI512
aI9443
atp19
a(g1
I5286
(lp20
I1102
aI7089
aI143
atp21
a(g1
I7845
(lp22
I551
aI8689
aI5216
atp23
a(g1
I8682
(lp24
I3215
aI1196
aI2686
atp25
a(g1
I4460
(lp26
I8398
aI6126
aI9250
atp27
a(g1
I5517
(lp28
I10161
aI2183
aI5436
atp29
a(g1
I535
(lp30
I9775
aI10213
aI1894
atp31
a(g1
I4408
(lp32
I8312
aI8075
aI9687
atp33
a(g1
I2937
(lp34
I9381
aI3589
aI1264
atp35
a(g1
I6331
(lp36
I6185
aI3757
aI1951
atp37
a(g1
I6468
(lp38
I9348
aI2303
aI2987
atp39
a(g1
I4309
(lp40
I1042
aI74
aI1405
atp41
a(g1
I5503
(lp42
I6469
aI9524
aI1465
atp43
a(g1
I4932
(lp44
I2575
aI1822
aI9288
atp45
a(g1
I2608
(lp46
I6375
aI7108
aI4814
atp47
a(g1
I925
(lp48
I5612
aI1070
aI4743
atp49
a(g1
I6609
(lp50
I9520
aI8694
aI2113
atp51
a(g1
I3435
(lp52
I3315
aI9458
aI7442
atp53
a(g1
I4433
(lp54
I9972
aI3236
aI2209
atp55
a(g1
I8414
(lp56
I6563
aI1651
aI8405
atp57
a(g1
I3357
(lp58
I7250
aI2233
aI5273
atp59
a(g1
I7351
(lp60
I4299
aI1036
aI9381
atp61
a(g1
I6920
(lp62
I5142
aI9568
aI910
atp63
a(g1
I7380
(lp64
I5916
aI2316
aI7266
atp65
a.