(lp0
((lp1
I5
aI13
aI84
aI7363
(lp2
I5898
aI4780
aI506
atp3
a(g1
I6401
(lp4
I5764
aI366
aI3345
atp5
a(g1
I6230
(lp6
I2081
aI8504
aI6204
atp7
a(g1
I7225
(lp8
I7604
aI4617
aI450
atp9
a(g1
I6168
(lp10
I3780
aI2582
aI9598
atp11
a(g1
I7902
(lp12
I1568
aI3891
aI9164
atp13
a(g1
I7380
(lp14
I5096
aI4929
aI9205
atp15
a(g1
I5318
(lp16
I6439
aI1562
aI4324
atp17
a(g1
I5871
(lp18
I7498
aI2661
aI10067
atp19
a(g1
I905
(lp20
I2343
aI9456
aI4953
atp21
a(g1
I10052
(lp22
I3120
aI498
aI2696
atp23
a(g1
I729
(lp24
I2255
aI261
aI1289
atp25
a(g1
I1667
(lp26
I391
aI5662
aI1314
atp27
a(g1
I1536
(lp28
I303
aI6756
aI7939
atp29
a(g1
I2711
(lp30
I3019
aI8535
aI6909
atp31
a(g1
I3269
(lp32
I2481
aI5402
aI6022
atp33
a(g1
I8063
(lp34
I2057
aI7867
aI3334
atp35
a(g1
I3414
(lp36
I5369
aI3172
aI8412
atp37
a(g1
I8112
(lp38
I1452
aI2527
aI9011
atp39
a(g1
I6565
(lp40
I3358
aI813
aI8864
atp41
a(g1
I3722
(lp42
I10241
aI9015
aI4549
atp43
a(g1
I7836
(lp44
I6767
aI6838
aI5821
atp45
a(g1
I10101
(lp46
I2515
aI5447
aI8373
atp47
a(g1
I1813
(lp48
I3578
aI8367
aI7735
atp49
a(g1
I440
(lp50
I4573
aI908
aI2395
atp51
a(g1
I2580
(lp52
I1130
aI5127
aI3087
atp53
a(g1
I3998
(lp54
I2629
aI756
aI6572
atp55
a(g1
I693
(lp56
I60
aI6737
aI7175
atp57
a(g1
I4643
(lp58
I990
aI3126
aI64
atp59
a(g1
I6359
(lp60
I4670
aI1339
aI4563
atp61
a(g1
I1988
(lp62
I9558
aI4177
aI6043
atp63
a(g1
I4644
(lp64
I7983
aI4816
aI329
atp65
a.