(lp0
((lp1
I4
aI14
aI15
aI16
aI51
aI8259
(lp2
I9911
aI2106
aI9883
aI3936
aI3835
atp3
a(g1
I181
(lp4
I1789
aI7671
aI9543
aI2113
aI7300
atp5
a(g1
I4186
(lp6
I3775
aI8365
aI5960
aI5931
aI4626
atp7
a(g1
I9212
(lp8
I4118
aI6454
aI9377
aI73
aI3242
atp9
a(g1
I4805
(lp10
I4478
aI7388
aI6334
aI734
aI5959
atp11
a(g1
I8199
(lp12
I9868
aI8225
aI5645
aI8630
aI9198
atp13
a(g1
I6536
(lp14
I3710
aI10197
aI10082
aI8241
aI7708
atp15
a(g1
I1688
(lp16
I8061
aI3594
aI2942
aI825
aI8450
atp17
a(g1
I2096
(lp18
I8334
aI2073
aI2092
aI1412
aI1679
atp19
a(g1
I10269
(lp20
I8414
aI4567
aI2559
aI7275
aI3426
atp21
a(g1
I4220
(lp22
I3775
aI8365
aI5960
aI5931
aI4626
atp23
a(g1
I10282
(lp24
I6797
aI3287
aI9968
aI6964
aI5541
atp25
a(g1
I8874
(lp26
I8997
aI10138
aI7377
aI8717
aI7283
atp27
a(g1
I1603
(lp28
I2208
aI927
aI4658
aI5426
aI9119
atp29
a(g1
I9184
(lp30
I1299
aI112
aI252
aI6072
aI458
atp31
a(g1
I5783
(lp32
I3994
aI5675
aI5052
aI10020
aI7222
atp33
a(g1
I9991
(lp34
I1759
aI9308
aI365
aI6345
aI7931
atp35
a(g1
I3210
(lp36
I9439
aI1796
aI4041
aI3298
aI730
atp37
a(g1
I3240
(lp38
I2556
aI458
aI6175
aI5722
aI5915
atp39
a(g1
I7076
(lp40
I4613
aI5166
aI6479
aI2268
aI8264
atp41
a(g1
I1576
(lp42
I9964
aI9160
aI32
aI1261
aI5121
atp43
a(g1
I2944
(lp44
I7392
aI10261
aI10226
aI8771
aI5030
atp45
a(g1
I6491
(lp46
I4783
aI2749
aI3613
aI5724
aI8118
atp47
a(g1
I7316
(lp48
I5043
aI5710
aI7703
aI6773
aI6079
atp49
a(g1
I4166
(lp50
I7839
aI3361
aI4990
aI9506
aI6946
atp51
a(g1
I1768
(lp52
I3711
aI4312
aI9702
aI7414
aI7344
atp53
a(g1
I3992
(lp54
I197
aI3312
aI7452
aI1705
aI315
atp55
a(g1
I7098
(lp56
I7475
aI5389
aI9553
aI1864
aI5685
atp57
a(g1
I2947
(lp58
I752
aI9039
aI2332
aI5725
aI4075
atp59
a(g1
I1626
(lp60
I7231
aI869
aI9672
aI8161
aI1900
atp61
a(g1
I8059
(lp62
I7163
aI10067
aI4645
aI2663
aI6074
atp63
a(g1
I2350
(lp64
I9222
aI3005
aI4189
aI7844
aI7695
atp65
a.