(lp0
((lp1
I1
aI2
aI4
aI5
aI6
aI13
aI14
aI15
aI16
aI51
aI53
aI54
aI55
aI9418
(lp2
I9842
aI4794
aI7410
aI8456
aI9481
aI1508
aI7221
aI3386
aI4174
aI8767
aI8641
aI1038
aI9893
atp3
a(g1
I829
(lp4
I3002
aI8891
aI2578
aI1745
aI2296
aI9875
aI4745
aI8104
aI8106
aI8196
aI6211
aI2144
aI8460
atp5
a(g1
I7028
(lp6
I3288
aI4926
aI9507
aI9616
aI6703
aI4859
aI2887
aI9068
aI8796
aI6845
aI9291
aI6797
aI1808
atp7
a(g1
I5924
(lp8
I1076
aI3790
aI9232
aI3998
aI679
aI4081
aI5889
aI389
aI9863
aI4055
aI5256
aI885
aI9654
atp9
a(g1
I3023
(lp10
I4274
aI8093
aI10011
aI6892
aI383
aI9727
aI79
aI2750
aI3548
aI8591
aI8829
aI1469
aI748
atp11
a(g1
I9495
(lp12
I7098
aI7292
aI1729
aI2659
aI4613
aI9269
aI656
aI1476
aI288
aI8562
aI4417
aI2300
aI6081
atp13
a(g1
I9906
(lp14
I8803
aI9377
aI7025
aI8822
aI5163
aI8650
aI9366
aI5640
aI3610
aI4861
aI2992
aI5108
aI4415
atp15
a(g1
I6075
(lp16
I8810
aI394
aI9533
aI4086
aI9480
aI2987
aI4212
aI9477
aI7872
aI7670
aI693
aI7992
aI1590
atp17
a(g1
I775
(lp18
I6184
aI8739
aI2034
aI6645
aI8301
aI7887
aI6306
aI9044
aI5278
aI432
aI3280
aI6425
aI7481
atp19
a(g1
I1655
(lp20
I7653
aI9419
aI677
aI6385
aI1473
aI2701
aI7987
aI10254
aI6016
aI508
aI8811
aI4602
aI6987
atp21
a(g1
I1154
(lp22
I8911
aI6009
aI3094
aI426
aI1215
aI3590
aI3340
aI7515
aI3223
aI5574
aI5738
aI8448
aI4925
atp23
a(g1
I5730
(lp24
I4288
aI416
aI4738
aI7709
aI9017
aI8690
aI60
aI135
aI1783
aI3920
aI4231
aI7237
aI5387
atp25
a(g1
I6891
(lp26
I939
aI6157
aI10122
aI7027
aI10260
aI1735
aI5340
aI1726
aI4352
aI9343
aI6155
aI6175
aI6149
atp27
a(g1
I6985
(lp28
I8630
aI9437
aI2366
aI931
aI5771
aI4561
aI7396
aI6352
aI8517
aI3052
aI9835
aI5855
aI740
atp29
a(g1
I2118
(lp30
I1010
aI4705
aI7633
aI4556
aI9951
aI6030
aI1569
aI958
aI4955
aI9907
aI9294
aI4560
aI2483
atp31
a(g1
I3725
(lp32
I534
aI8498
aI1713
aI7645
aI4487
aI132
aI2215
aI7556
aI3231
aI4097
aI1002
aI3939
aI9381
atp33
a(g1
I4571
(lp34
I4309
aI4334
aI1973
aI3790
aI1390
aI1990
aI5176
aI1357
aI4280
aI2058
aI7623
aI5600
aI7201
atp35
a(g1
I7449
(lp36
I6015
aI2196
aI278
aI3397
aI9906
aI562
aI10210
aI7539
aI6741
aI1698
aI1460
aI8820
aI9541
atp37
a(g1
I5993
(lp38
I4009
aI5687
aI317
aI5391
aI8927
aI8043
aI7053
aI3008
aI5355
aI8080
aI9141
aI5468
aI9214
atp39
a(g1
I3768
(lp40
I169
aI6543
aI1756
aI3248
aI8684
aI7325
aI6385
aI1505
aI8826
aI9023
aI1820
aI7894
aI8229
atp41
a(g1
I981
(lp42
I3264
aI3388
aI2378
aI2336
aI721
aI3697
aI8799
aI1792
aI8882
aI8973
aI9824
aI7198
aI8554
atp43
a(g1
I4440
(lp44
I8951
aI1713
aI1257
aI5700
aI896
aI2097
aI346
aI5923
aI9939
aI5457
aI1420
aI4350
aI541
atp45
a(g1
I8557
(lp46
I8227
aI3332
aI553
aI9015
aI5641
aI1340
aI7208
aI5929
aI5674
aI4488
aI5495
aI4443
aI1695
atp47
a(g1
I1537
(lp48
I7975
aI7761
aI2866
aI4598
aI4564
aI9717
aI7550
aI1554
aI6577
aI6254
aI5947
aI3509
aI505
atp49
a(g1
I4770
(lp50
I8088
aI3856
aI5136
aI4578
aI9579
aI612
aI3722
aI3230
aI1885
aI3094
aI5581
aI8909
aI467
atp51
a(g1
I2425
(lp52
I2818
aI3959
aI2797
aI4236
aI7879
aI4396
aI2055
aI7196
aI1906
aI503
aI3438
aI8648
aI1875
atp53
a(g1
I3750
(lp54
I1599
aI7296
aI5534
aI1447
aI10141
aI2823
aI7384
aI6325
aI1987
aI2268
aI6931
aI292
aI5836
atp55
a(g1
I6066
(lp56
I9467
aI3913
aI5340
aI7885
aI6041
aI6502
aI6995
aI8022
aI8090
aI861
aI5394
aI873
aI9837
atp57
a(g1
I2288
(lp58
I4935
aI5009
aI8721
aI5045
aI8230
aI10006
aI8736
aI9367
aI322
aI4857
aI4867
aI6287
aI4441
atp59
a(g1
I2228
(lp60
I1126
aI8709
aI9508
aI5446
aI7997
aI4787
aI7291
aI8688
aI7969
aI6481
aI5003
aI907
aI4174
atp61
a(g1
I4494
(lp62
I10235
aI1684
aI7110
aI4198
aI1974
aI2530
aI3013
aI4207
aI5338
aI4788
aI8916
aI8619
aI10034
atp63
a(g1
I4116
(lp64
I4910
aI7694
aI8583
aI4321
aI4571
aI9653
aI8035
aI73
aI1269
aI3644
aI10138
aI6276
aI7181
atp65
a.