(lp0
((lp1
I2
aI4
aI14
aI51
aI8735
(lp2
I2644
aI4589
aI2360
aI6711
atp3
a(g1
I3635
(lp4
I1547
aI2829
aI9226
aI9433
atp5
a(g1
I2187
(lp6
I6211
aI4900
aI3567
aI6686
atp7
a(g1
I3179
(lp8
I8998
aI4044
aI9806
aI9600
atp9
a(g1
I868
(lp10
I347
aI3408
aI7470
aI4457
atp11
a(g1
I6291
(lp12
I698
aI332
aI1090
aI2620
atp13
a(g1
I7432
(lp14
I8032
aI6002
aI367
aI6829
atp15
a(g1
I4303
(lp16
I779
aI2788
aI3575
aI3779
atp17
a(g1
I6961
(lp18
I2457
aI9335
aI6785
aI7719
atp19
a(g1
I6827
(lp20
I3898
aI9077
aI2343
aI9030
atp21
a(g1
I6744
(lp22
I8800
aI6043
aI6018
aI2194
atp23
a(g1
I1099
(lp24
I4894
aI9934
aI508
aI5752
atp25
a(g1
I7972
(lp26
I1334
aI8565
aI786
aI10196
atp27
a(g1
I8872
(lp28
I6076
aI7666
aI2855
aI8184
atp29
a(g1
I7404
(lp30
I8242
aI5129
aI3761
aI5642
atp31
a(g1
I5791
(lp32
I4058
aI6942
aI3949
aI4206
atp33
a(g1
I5804
(lp34
I10285
aI6484
aI3561
aI6294
atp35
a(g1
I1373
(lp36
I5321
aI7130
aI8781
aI7797
atp37
a(g1
I8238
(lp38
I7206
aI7378
aI50
aI10126
atp39
a(g1
I9727
(lp40
I3867
aI7883
aI1646
aI1219
atp41
a(g1
I7977
(lp42
I8495
aI6576
aI7458
aI3673
atp43
a(g1
I2609
(lp44
I3662
aI651
aI6662
aI9972
atp45
a(g1
I577
(lp46
I9065
aI8616
aI9321
aI1921
atp47
a(g1
I2434
(lp48
I2605
aI6074
aI8785
aI1199
atp49
a(g1
I1945
(lp50
I6356
aI6502
aI521
aI10031
atp51
a(g1
I1052
(lp52
I2396
aI5326
aI7073
aI5957
atp53
a(g1
I3773
(lp54
I9823
aI4289
aI8441
aI2732
atp55
a(g1
I4173
(lp56
I3212
aI9871
aI859
aI8106
atp57
a(g1
I7964
(lp58
I9096
aI9810
aI10018
aI9732
atp59
a(g1
I9481
(lp60
I8255
aI4634
aI5049
aI620
atp61
a(g1
I1480
(lp62
I9506
aI3696
aI10275
aI2515
atp63
a(g1
I8769
(lp64
I7879
aI7079
aI246
aI5783
atp65
a.