(lp0
((lp1
I2
aI4
aI14
aI51
aI3943
(lp2
I8744
aI4218
aI4427
aI7998
atp3
a(g1
I6311
(lp4
I3196
aI4940
aI4814
aI2415
atp5
a(g1
I9950
(lp6
I9739
aI6696
aI910
aI1149
atp7
a(g1
I8115
(lp8
I2029
aI3471
aI7119
aI2103
atp9
a(g1
I1543
(lp10
I3851
aI2952
aI5601
aI5817
atp11
a(g1
I10145
(lp12
I6734
aI815
aI8688
aI1721
atp13
a(g1
I9255
(lp14
I8190
aI7109
aI8898
aI5152
atp15
a(g1
I5086
(lp16
I2118
aI3248
aI2482
aI963
atp17
a(g1
I7244
(lp18
I3275
aI349
aI3935
aI6721
atp19
a(g1
I5480
(lp20
I7150
aI5553
aI8748
aI5641
atp21
a(g1
I2281
(lp22
I3865
aI836
aI8571
aI4366
atp23
a(g1
I4767
(lp24
I1119
aI7254
aI9560
aI3817
atp25
a(g1
I2748
(lp26
I3785
aI7048
aI7768
aI6778
atp27
a(g1
I2902
(lp28
I3879
aI9009
aI1252
aI2915
atp29
a(g1
I2894
(lp30
I3698
aI4029
aI5480
aI4771
atp31
a(g1
I203
(lp32
I5778
aI7141
aI5780
aI3793
atp33
a(g1
I6781
(lp34
I799
aI1235
aI6348
aI3176
atp35
a(g1
I156
(lp36
I5988
aI6268
aI9174
aI2606
atp37
a(g1
I2544
(lp38
I1374
aI5459
aI6332
aI8990
atp39
a(g1
I4095
(lp40
I5978
aI1900
aI2643
aI8052
atp41
a(g1
I2980
(lp42
I932
aI1711
aI3696
aI4825
atp43
a(g1
I2730
(lp44
I295
aI5388
aI2318
aI3967
atp45
a(g1
I6016
(lp46
I8967
aI2850
aI9109
aI1789
atp47
a(g1
I8768
(lp48
I7488
aI2972
aI1080
aI8826
atp49
a(g1
I2187
(lp50
I6211
aI4900
aI3567
aI6686
atp51
a(g1
I5864
(lp52
I7700
aI9146
aI7838
aI4492
atp53
a(g1
I2499
(lp54
I2185
aI7820
aI1997
aI3573
atp55
a(g1
I1156
(lp56
I7001
aI146
aI5066
aI8590
atp57
a(g1
I6622
(lp58
I495
aI147
aI9470
aI8226
atp59
a(g1
I9442
(lp60
I102
aI9571
aI6940
aI4127
atp61
a(g1
I4008
(lp62
I8353
aI111
aI5261
aI752
atp63
a(g1
I9685
(lp64
I9493
aI4191
aI8987
aI7537
atp65
a.