(lp0
((lp1
I1
aI2
aI4
aI14
aI51
aI4288
(lp2
I2939
aI7426
aI584
aI9975
aI3493
atp3
a(g1
I2718
(lp4
I6567
aI6703
aI9910
aI7991
aI4199
atp5
a(g1
I2048
(lp6
I8585
aI3981
aI8291
aI8192
aI7042
atp7
a(g1
I7081
(lp8
I7462
aI3181
aI8677
aI162
aI295
atp9
a(g1
I4106
(lp10
I9230
aI6731
aI5678
aI3642
aI1297
atp11
a(g1
I7233
(lp12
I6483
aI1320
aI392
aI8105
aI1358
atp13
a(g1
I7799
(lp14
I1051
aI6475
aI9094
aI5188
aI2842
atp15
a(g1
I2910
(lp16
I4450
aI5653
aI3986
aI1310
aI10134
atp17
a(g1
I9949
(lp18
I3680
aI6039
aI5909
aI2355
aI9814
atp19
a(g1
I4350
(lp20
I9243
aI3277
aI7396
aI7299
aI3574
atp21
a(g1
I8738
(lp22
I9992
aI9262
aI8238
aI1138
aI5756
atp23
a(g1
I5932
(lp24
I7118
aI5144
aI5955
aI9448
aI3359
atp25
a(g1
I258
(lp26
I7296
aI4547
aI6526
aI3327
aI1295
atp27
a(g1
I6250
(lp28
I4168
aI3015
aI10249
aI9042
aI4271
atp29
a(g1
I3001
(lp30
I2917
aI7731
aI51
aI8535
aI2014
atp31
a(g1
I182
(lp32
I116
aI4004
aI1875
aI5722
aI6863
atp33
a(g1
I9969
(lp34
I236
aI1405
aI6653
aI7029
aI6512
atp35
a(g1
I4905
(lp36
I3592
aI7259
aI3777
aI6884
aI3898
atp37
a(g1
I4862
(lp38
I2673
aI9243
aI8170
aI47
aI9930
atp39
a(g1
I3380
(lp40
I5133
aI2264
aI3229
aI1118
aI7879
atp41
a(g1
I1327
(lp42
I898
aI4387
aI8661
aI1721
aI6119
atp43
a(g1
I4984
(lp44
I556
aI8193
aI2246
aI3655
aI5576
atp45
a(g1
I4
(lp46
I5269
aI4120
aI9330
aI5343
aI9539
atp47
a(g1
I3496
(lp48
I3600
aI4342
aI9583
aI8343
aI10048
atp49
a(g1
I8728
(lp50
I1133
aI10015
aI1727
aI2137
aI9290
atp51
a(g1
I7053
(lp52
I3215
aI4535
aI5400
aI3721
aI9888
atp53
a(g1
I8183
(lp54
I5719
aI7235
aI1525
aI7672
aI506
atp55
a(g1
I6554
(lp56
I8866
aI553
aI9019
aI4136
aI9564
atp57
a(g1
I9242
(lp58
I6282
aI6445
aI6279
aI6173
aI8891
atp59
a(g1
I9197
(lp60
I8515
aI1210
aI3789
aI8287
aI9819
atp61
a(g1
I7932
(lp62
I3035
aI3289
aI8522
aI6905
aI5270
atp63
a(g1
I9272
(lp64
I8296
aI37
aI1757
aI500
aI8659
atp65
a.