(lp0
((lp1
I2
aI4
aI14
aI51
aI2587
(lp2
I7934
aI236
aI155
aI6697
atp3
a(g1
I9520
(lp4
I6662
aI4348
aI763
aI1834
atp5
a(g1
I5357
(lp6
I9344
aI9073
aI5305
aI197
atp7
a(g1
I7710
(lp8
I7858
aI10253
aI6080
aI2815
atp9
a(g1
I9091
(lp10
I877
aI8554
aI3787
aI3911
atp11
a(g1
I4385
(lp12
I569
aI3661
aI181
aI4966
atp13
a(g1
I3577
(lp14
I5667
aI1870
aI4280
aI8683
atp15
a(g1
I2539
(lp16
I4111
aI3341
aI494
aI8267
atp17
a(g1
I6321
(lp18
I2023
aI2908
aI7316
aI1255
atp19
a(g1
I2935
(lp20
I751
aI7020
aI7924
aI6681
atp21
a(g1
I3039
(lp22
I6138
aI10054
aI4249
aI3228
atp23
a(g1
I4276
(lp24
I5681
aI10043
aI7250
aI7232
atp25
a(g1
I8636
(lp26
I4447
aI4002
aI10040
aI4310
atp27
a(g1
I2171
(lp28
I1005
aI6846
aI3014
aI8283
atp29
a(g1
I4213
(lp30
I6072
aI3861
aI6416
aI4189
atp31
a(g1
I5624
(lp32
I5318
aI1704
aI3735
aI7373
atp33
a(g1
I3099
(lp34
I5718
aI1511
aI7750
aI5602
atp35
a(g1
I7288
(lp36
I538
aI2467
aI9773
aI7444
atp37
a(g1
I1848
(lp38
I3105
aI8405
aI6087
aI6702
atp39
a(g1
I2682
(lp40
I4386
aI10282
aI39
aI2548
atp41
a(g1
I1847
(lp42
I1541
aI2266
aI9423
aI8585
atp43
a(g1
I2870
(lp44
I6225
aI2784
aI6537
aI5235
atp45
a(g1
I5264
(lp46
I2212
aI5209
aI6255
aI7389
atp47
a(g1
I3083
(lp48
I9056
aI2627
aI4472
aI649
atp49
a(g1
I6643
(lp50
I4557
aI605
aI9858
aI6138
atp51
a(g1
I7925
(lp52
I4252
aI1138
aI1009
aI7617
atp53
a(g1
I9143
(lp54
I1268
aI2372
aI2953
aI868
atp55
a(g1
I5953
(lp56
I3971
aI3923
aI1661
aI2199
atp57
a(g1
I7739
(lp58
I277
aI3699
aI2909
aI1423
atp59
a(g1
I7326
(lp60
I328
aI3340
aI6379
aI8631
atp61
a(g1
I9903
(lp62
I9587
aI6152
aI2471
aI3674
atp63
a(g1
I8513
(lp64
I6641
aI7522
aI6597
aI9155
atp65
a.