(lp0
((lp1
I1
aI4
aI11
aI12
aI13
aI14
aI51
aI52
aI53
aI8284
(lp2
I5397
aI9625
aI9913
aI6043
aI6652
aI8109
aI5049
aI10151
aI7468
atp3
a(g1
I8322
(lp4
I712
aI2284
aI9351
aI5060
aI176
aI6383
aI2033
aI2830
aI1336
atp5
a(g1
I10224
(lp6
I322
aI2189
aI6570
aI6219
aI7016
aI9852
aI5746
aI7118
aI7425
atp7
a(g1
I9304
(lp8
I1232
aI9270
aI2770
aI85
aI1345
aI8617
aI512
aI3972
aI6936
atp9
a(g1
I3046
(lp10
I319
aI2584
aI5678
aI1400
aI9443
aI302
aI6012
aI661
aI1061
atp11
a(g1
I459
(lp12
I6609
aI4380
aI10166
aI8298
aI3599
aI7934
aI475
aI5373
aI6274
atp13
a(g1
I8041
(lp14
I4727
aI1811
aI2761
aI6715
aI3365
aI1669
aI9581
aI5118
aI2627
atp15
a(g1
I1084
(lp16
I1585
aI518
aI1409
aI8085
aI3860
aI7403
aI6939
aI9219
aI1240
atp17
a(g1
I9284
(lp18
I6136
aI8354
aI6714
aI3029
aI5563
aI7841
aI4688
aI9360
aI4346
atp19
a(g1
I3871
(lp20
I8560
aI8153
aI7220
aI7539
aI9746
aI7491
aI5829
aI10093
aI1958
atp21
a(g1
I1280
(lp22
I5510
aI1606
aI9215
aI9216
aI7836
aI4281
aI1889
aI2999
aI7102
atp23
a(g1
I8069
(lp24
I553
aI2641
aI3231
aI6878
aI5339
aI4394
aI5842
aI146
aI3581
atp25
a(g1
I2811
(lp26
I2947
aI6390
aI5106
aI4354
aI2925
aI1145
aI9643
aI8332
aI9576
atp27
a(g1
I123
(lp28
I9705
aI8300
aI4700
aI1630
aI9451
aI6672
aI3766
aI1725
aI9540
atp29
a(g1
I2336
(lp30
I4570
aI8764
aI4095
aI8316
aI6910
aI2617
aI9783
aI3309
aI5685
atp31
a(g1
I4481
(lp32
I1522
aI8813
aI3255
aI9776
aI3382
aI2344
aI2236
aI7379
aI1353
atp33
a(g1
I750
(lp34
I2229
aI4896
aI4260
aI10234
aI7603
aI6529
aI8142
aI2877
aI5801
atp35
a(g1
I494
(lp36
I2143
aI9360
aI2697
aI9276
aI5154
aI3706
aI8908
aI6408
aI1709
atp37
a(g1
I1175
(lp38
I2431
aI2307
aI6017
aI8895
aI8809
aI4785
aI3950
aI8940
aI5602
atp39
a(g1
I1708
(lp40
I1246
aI3997
aI3503
aI8855
aI308
aI8598
aI6130
aI10097
aI2338
atp41
a(g1
I6533
(lp42
I7217
aI3209
aI2313
aI4064
aI5599
aI5639
aI4870
aI3859
aI6490
atp43
a(g1
I3263
(lp44
I2784
aI3844
aI4656
aI6606
aI1035
aI3571
aI88
aI3898
aI10195
atp45
a(g1
I4413
(lp46
I2544
aI4577
aI5319
aI1779
aI9993
aI957
aI790
aI1788
aI5236
atp47
a(g1
I1525
(lp48
I9770
aI6601
aI19
aI10011
aI8311
aI4379
aI4862
aI4440
aI10240
atp49
a(g1
I2075
(lp50
I6133
aI8749
aI5822
aI8499
aI7990
aI8580
aI4954
aI2903
aI8271
atp51
a(g1
I8552
(lp52
I6213
aI5075
aI5601
aI10108
aI5004
aI2592
aI4720
aI7036
aI9924
atp53
a(g1
I654
(lp54
I2186
aI7128
aI8623
aI9755
aI1234
aI10262
aI8525
aI9787
aI3755
atp55
a(g1
I2675
(lp56
I5210
aI10239
aI2327
aI610
aI3600
aI6158
aI7911
aI5506
aI8620
atp57
a(g1
I3900
(lp58
I9917
aI7824
aI2571
aI9495
aI2567
aI9324
aI2117
aI1874
aI3117
atp59
a(g1
I1287
(lp60
I7086
aI3309
aI7948
aI2844
aI8688
aI3612
aI9626
aI3136
aI9828
atp61
a(g1
I8745
(lp62
I5307
aI897
aI3731
aI5519
aI7439
aI9701
aI2740
aI1643
aI1750
atp63
a(g1
I3307
(lp64
I4652
aI1397
aI1039
aI9708
aI2306
aI9855
aI5942
aI8317
aI8151
atp65
a.