(lp0
((lp1
I2
aI4
aI5
aI6
aI12
aI13
aI14
aI51
aI1337
(lp2
I3549
aI5443
aI7289
aI9183
aI4787
aI9813
aI2811
aI3846
atp3
a(g1
I1793
(lp4
I6058
aI9894
aI3246
aI7082
aI7229
aI5783
aI4346
aI1477
atp5
a(g1
I10278
(lp6
I8997
aI7632
aI5867
aI4502
aI5595
aI9752
aI2847
aI1183
atp7
a(g1
I2842
(lp8
I4024
aI7479
aI3165
aI6620
aI763
aI4412
aI1613
aI3865
atp9
a(g1
I2854
(lp10
I7125
aI9962
aI10163
aI2711
aI1374
aI1297
aI2608
aI285
atp11
a(g1
I4003
(lp12
I10164
aI5421
aI5959
aI1216
aI2142
aI5212
aI5189
aI10284
atp13
a(g1
I10095
(lp14
I347
aI4130
aI4612
aI8395
aI3602
aI4134
aI10042
aI837
atp15
a(g1
I7863
(lp16
I2239
aI3402
aI9240
aI114
aI2130
aI4347
aI808
aI9967
atp17
a(g1
I5146
(lp18
I9082
aI9296
aI2638
aI2852
aI4550
aI446
aI6315
aI5302
atp19
a(g1
I5900
(lp20
I4158
aI1750
aI9453
aI7045
aI2747
aI6809
aI9138
aI1401
atp21
a(g1
I9246
(lp22
I1082
aI6414
aI3321
aI8653
aI7881
aI4766
aI9163
aI4982
atp23
a(g1
I7368
(lp24
I7496
aI9841
aI2848
aI5193
aI2260
aI1714
aI5398
aI4827
atp25
a(g1
I6732
(lp26
I3253
aI6427
aI6913
aI10087
aI558
aI4211
aI3081
aI9596
atp27
a(g1
I8778
(lp28
I5659
aI9830
aI2183
aI6354
aI6082
aI4558
aI6587
aI8046
atp29
a(g1
I6509
(lp30
I7653
aI9041
aI4994
aI6382
aI3356
aI1835
aI7688
aI9772
atp31
a(g1
I7169
(lp32
I1573
aI5616
aI8394
aI2148
aI5476
aI7176
aI6560
aI7471
atp33
a(g1
I4187
(lp34
I1881
aI7651
aI7951
aI3432
aI8347
aI5775
aI2664
aI8718
atp35
a(g1
I2692
(lp36
I2052
aI1799
aI3997
aI3744
aI4429
aI6300
aI7583
aI2963
atp37
a(g1
I4547
(lp38
I2962
aI2667
aI8768
aI8473
aI7767
aI1693
aI3555
aI7115
atp39
a(g1
I1888
(lp40
I6908
aI5956
aI1823
aI871
aI7068
aI5324
aI8159
aI1511
atp41
a(g1
I10074
(lp42
I3788
aI2980
aI8983
aI8175
aI33
aI4951
aI4331
aI3444
atp43
a(g1
I9462
(lp44
I3190
aI8583
aI3496
aI8889
aI2543
aI2393
aI6684
aI6301
atp45
a(g1
I3270
(lp46
I1834
aI6973
aI3442
aI8581
aI1662
aI1479
aI4862
aI7893
atp47
a(g1
I8134
(lp48
I2436
aI5806
aI8656
aI1737
aI2129
aI8562
aI4730
aI509
atp49
a(g1
I6318
(lp50
I5613
aI10261
aI178
aI4826
aI7858
aI9110
aI6768
aI3517
atp51
a(g1
I5978
(lp52
I1941
aI2168
aI3856
aI4083
aI1557
aI1627
aI5112
aI2547
atp53
a(g1
I8204
(lp54
I10100
aI6468
aI38
aI6695
aI5955
aI4835
aI520
aI404
atp55
a(g1
I1203
(lp56
I1985
aI9808
aI853
aI8676
aI3437
aI10246
aI8965
aI4195
atp57
a(g1
I8886
(lp58
I3680
aI6676
aI6065
aI9061
aI1966
aI6244
aI6098
aI2205
atp59
a(g1
I9775
(lp60
I10201
aI5298
aI6006
aI1103
aI6529
aI3340
aI2583
aI6993
atp61
a(g1
I219
(lp62
I5107
aI4713
aI8990
aI8596
aI6816
aI7737
aI8759
aI5143
atp63
a(g1
I6235
(lp64
I4525
aI7482
aI2411
aI5368
aI656
aI2701
aI9707
aI181
atp65
a.