(lp0
((lp1
I2
aI4
aI5
aI6
aI12
aI13
aI14
aI51
aI53
aI54
aI7693
(lp2
I3538
aI3533
aI323
aI318
aI4317
aI5086
aI4420
aI3434
aI1068
aI6131
atp3
a(g1
I5446
(lp4
I5464
aI9644
aI7775
aI1666
aI2427
aI7750
aI8920
aI10096
aI2295
aI8695
atp5
a(g1
I2994
(lp6
I1739
aI4508
aI2209
aI4978
aI409
aI4617
aI986
aI9947
aI1188
aI2080
atp7
a(g1
I8746
(lp8
I2116
aI752
aI9918
aI8554
aI616
aI6677
aI1963
aI2554
aI7374
aI3661
atp9
a(g1
I8962
(lp10
I4972
aI9333
aI198
aI4559
aI6660
aI6781
aI3251
aI1022
aI8905
aI764
atp11
a(g1
I392
(lp12
I3876
aI7971
aI2977
aI7072
aI3793
aI1611
aI1748
aI6740
aI10162
aI10032
atp13
a(g1
I8283
(lp14
I3422
aI8646
aI8240
aI3175
aI296
aI7618
aI1745
aI960
aI1539
aI6436
atp15
a(g1
I8437
(lp16
I9311
aI6032
aI10159
aI6880
aI7787
aI9994
aI7427
aI784
aI4858
aI5942
atp17
a(g1
I5619
(lp18
I928
aI252
aI8687
aI8011
aI1301
aI322
aI822
aI9503
aI6521
aI7849
atp19
a(g1
I2164
(lp20
I6765
aI1704
aI3866
aI9094
aI958
aI5607
aI8498
aI6444
aI6858
aI3589
atp21
a(g1
I1183
(lp22
I8663
aI7630
aI2940
aI1907
aI9096
aI7463
aI7740
aI3639
aI2522
aI7291
atp23
a(g1
I652
(lp24
I6800
aI9652
aI9194
aI1757
aI9001
aI6617
aI9926
aI272
aI6095
aI7311
atp25
a(g1
I4799
(lp26
I5546
aI7981
aI7323
aI9758
aI6866
aI2767
aI8150
aI4749
aI4623
aI8302
atp27
a(g1
I3550
(lp28
I1385
aI2904
aI647
aI2166
aI9603
aI281
aI5063
aI4171
aI674
aI1769
atp29
a(g1
I5157
(lp30
I2642
aI7902
aI10030
aI5001
aI6254
aI10097
aI788
aI9160
aI8254
aI1391
atp31
a(g1
I8530
(lp32
I6142
aI160
aI7802
aI1820
aI8012
aI8207
aI9831
aI9300
aI3977
aI3187
atp33
a(g1
I3457
(lp34
I909
aI10048
aI2267
aI1117
aI5166
aI7123
aI8278
aI7856
aI8993
aI537
atp35
a(g1
I5276
(lp36
I289
aI1542
aI3426
aI4679
aI6736
aI5400
aI3560
aI9889
aI1931
aI748
atp37
a(g1
I6653
(lp38
I9455
aI1104
aI331
aI2269
aI1780
aI8270
aI5071
aI2436
aI9950
aI4499
atp39
a(g1
I3360
(lp40
I2480
aI3157
aI5653
aI6330
aI4009
aI6892
aI8583
aI2157
aI7670
aI9445
atp41
a(g1
I7573
(lp42
I9400
aI1843
aI6657
aI9389
aI9719
aI5213
aI2827
aI376
aI860
aI120
atp43
a(g1
I8908
(lp44
I273
aI4376
aI4518
aI8621
aI5117
aI7878
aI4965
aI7419
aI222
aI4338
atp45
a(g1
I628
(lp46
I2577
aI7840
aI1605
aI6868
aI1606
aI872
aI8425
aI2984
aI9671
aI1828
atp47
a(g1
I3478
(lp48
I943
aI6598
aI5091
aI457
aI4748
aI9574
aI1434
aI5388
aI6194
aI625
atp49
a(g1
I6735
(lp50
I3355
aI6366
aI5096
aI8107
aI9593
aI1275
aI3127
aI2192
aI9173
aI9894
atp51
a(g1
I8243
(lp52
I6693
aI4168
aI8780
aI6255
aI9106
aI6469
aI9676
aI5618
aI4312
aI9455
atp53
a(g1
I6900
(lp54
I5259
aI8657
aI8905
aI2014
aI6763
aI4774
aI556
aI8030
aI6764
aI4533
atp55
a(g1
I4613
(lp56
I3642
aI5690
aI3514
aI5562
aI9696
aI9557
aI432
aI9200
aI7032
aI3374
atp57
a(g1
I10045
(lp58
I3346
aI6674
aI3138
aI6466
aI5467
aI3955
aI702
aI4661
aI1138
aI8055
atp59
a(g1
I3452
(lp60
I501
aI3
aI9535
aI9037
aI10182
aI8578
aI8094
aI6605
aI1425
aI9770
atp61
a(g1
I5832
(lp62
I6817
aI7927
aI317
aI1427
aI8792
aI2698
aI6504
aI9327
aI9840
aI7355
atp63
a(g1
I9130
(lp64
I6468
aI1579
aI986
aI6386
aI8846
aI1446
aI496
aI5609
aI9217
aI4636
atp65
a.