(lp0
((lp1
I1
aI6
aI11
aI52
aI1543
(lp2
I4304
aI5459
aI1902
aI3063
atp3
a(g1
I2687
(lp4
I9805
aI1595
aI9597
aI9629
atp5
a(g1
I9610
(lp6
I5401
aI207
aI4916
aI7365
atp7
a(g1
I6818
(lp8
I8766
aI576
aI4285
aI2600
atp9
a(g1
I6816
(lp10
I392
aI3385
aI9659
aI4276
atp11
a(g1
I3145
(lp12
I7579
aI8463
aI8030
aI46
atp13
a(g1
I1702
(lp14
I5673
aI246
aI3009
aI253
atp15
a(g1
I4123
(lp16
I7587
aI9372
aI9487
aI2863
atp17
a(g1
I2709
(lp18
I1347
aI4
aI4817
aI7449
atp19
a(g1
I5479
(lp20
I8082
aI24
aI8324
aI3538
atp21
a(g1
I3329
(lp22
I910
aI3081
aI3682
aI4047
atp23
a(g1
I156
(lp24
I1621
aI7987
aI702
aI8758
atp25
a(g1
I6854
(lp26
I329
aI85
aI7188
aI1384
atp27
a(g1
I2930
(lp28
I6630
aI4809
aI6248
aI1558
atp29
a(g1
I3621
(lp30
I7772
aI3384
aI738
aI4986
atp31
a(g1
I2954
(lp32
I444
aI4149
aI3696
aI7153
atp33
a(g1
I4
(lp34
I8416
aI9680
aI9992
aI252
atp35
a(g1
I9172
(lp36
I1021
aI1546
aI4606
aI3263
atp37
a(g1
I10044
(lp38
I9550
aI7346
aI3025
aI863
atp39
a(g1
I2804
(lp40
I1053
aI5182
aI145
aI4242
atp41
a(g1
I9377
(lp42
I76
aI3491
aI8697
aI1039
atp43
a(g1
I5124
(lp44
I7742
aI7692
aI2991
aI2139
atp45
a(g1
I10149
(lp46
I7173
aI915
aI3538
aI8846
atp47
a(g1
I9099
(lp48
I7333
aI8806
aI1811
aI3452
atp49
a(g1
I2760
(lp50
I7281
aI8042
aI7774
aI575
atp51
a(g1
I4039
(lp52
I10153
aI5125
aI6098
aI3556
atp53
a(g1
I5200
(lp54
I1136
aI5610
aI1114
aI9032
atp55
a(g1
I10175
(lp56
I8941
aI6313
aI6576
aI3774
atp57
a(g1
I4717
(lp58
I9275
aI5680
aI8244
aI488
atp59
a(g1
I3173
(lp60
I9641
aI8683
aI5451
aI8470
atp61
a(g1
I9517
(lp62
I9777
aI3558
aI9642
aI4914
atp63
a(g1
I2835
(lp64
I801
aI2271
aI550
aI2963
atp65
a.