(lp0
((lp1
I1
aI2
aI4
aI13
aI14
aI15
aI51
aI53
aI54
aI8431
(lp2
I3937
aI1073
aI9797
aI4557
aI4211
aI1758
aI4175
aI451
aI6671
atp3
a(g1
I5501
(lp4
I1458
aI5977
aI3521
aI3713
aI961
aI9879
aI4481
aI6204
aI3934
atp5
a(g1
I9877
(lp6
I1404
aI7661
aI342
aI6243
aI3974
aI3797
aI9269
aI4831
aI2264
atp7
a(g1
I1988
(lp8
I6717
aI882
aI449
aI8828
aI1908
aI4293
aI1188
aI9020
aI9952
atp9
a(g1
I9023
(lp10
I1584
aI8907
aI7509
aI4669
aI790
aI6922
aI3598
aI5978
aI4401
atp11
a(g1
I140
(lp12
I7910
aI4453
aI4565
aI568
aI9843
aI4141
aI5158
aI5247
aI7596
atp13
a(g1
I1117
(lp14
I7408
aI4865
aI5498
aI5415
aI3175
aI9716
aI5083
aI6964
aI6552
atp15
a(g1
I7325
(lp16
I3301
aI1472
aI936
aI4631
aI6544
aI4435
aI9122
aI9431
aI1864
atp17
a(g1
I9178
(lp18
I6647
aI8400
aI6236
aI3724
aI2003
aI7079
aI3965
aI1143
aI1690
atp19
a(g1
I2861
(lp20
I2582
aI2554
aI6433
aI10118
aI5315
aI4242
aI4280
aI105
aI4017
atp21
a(g1
I190
(lp22
I9194
aI4424
aI129
aI1001
aI2221
aI2425
aI4489
aI2454
aI1576
atp23
a(g1
I8046
(lp24
I5676
aI3622
aI3757
aI7299
aI1116
aI2511
aI889
aI2558
aI2909
atp25
a(g1
I8469
(lp26
I9322
aI9197
aI424
aI339
aI4987
aI3504
aI10288
aI3041
aI2867
atp27
a(g1
I1495
(lp28
I6691
aI7790
aI7302
aI9284
aI4883
aI3270
aI6923
aI8740
aI9529
atp29
a(g1
I214
(lp30
I2276
aI8667
aI5567
aI447
aI8670
aI4074
aI545
aI9473
aI1413
atp31
a(g1
I8531
(lp32
I2258
aI2369
aI7937
aI4720
aI2815
aI8906
aI2141
aI2156
aI4286
atp33
a(g1
I5464
(lp34
I101
aI5615
aI3850
aI603
aI9417
aI8327
aI8193
aI5045
aI456
atp35
a(g1
I251
(lp36
I3998
aI695
aI5195
aI6653
aI6333
aI1388
aI2196
aI9814
aI936
atp37
a(g1
I1408
(lp38
I9435
aI5292
aI2694
aI1523
aI1159
aI5180
aI7128
aI2675
aI8267
atp39
a(g1
I6098
(lp40
I4563
aI1748
aI6256
aI2284
aI7771
aI9768
aI6974
aI7984
aI7358
atp41
a(g1
I5288
(lp42
I642
aI5130
aI8071
aI5361
aI6478
aI9431
aI4810
aI3748
aI7279
atp43
a(g1
I2514
(lp44
I1285
aI6037
aI9151
aI9913
aI9280
aI302
aI2672
aI2758
aI4681
atp45
a(g1
I7364
(lp46
I6745
aI6106
aI192
aI6754
aI1870
aI9352
aI2135
aI10113
aI910
atp47
a(g1
I6752
(lp48
I10120
aI3746
aI8533
aI2964
aI3904
aI8784
aI1266
aI8469
aI2395
atp49
a(g1
I7091
(lp50
I4791
aI6070
aI7103
aI3034
aI3052
aI6867
aI7336
aI8065
aI8693
atp51
a(g1
I4236
(lp52
I2720
aI6253
aI8841
aI1366
aI2188
aI4923
aI2333
aI4757
aI9428
atp53
a(g1
I992
(lp54
I6927
aI9195
aI3666
aI3562
aI1623
aI6224
aI3146
aI1784
aI3871
atp55
a(g1
I7650
(lp56
I4963
aI10233
aI8464
aI7932
aI8698
aI4137
aI5804
aI5960
aI7534
atp57
a(g1
I2666
(lp58
I3342
aI3242
aI2397
aI2329
aI10163
aI4861
aI2057
aI375
aI8467
atp59
a(g1
I2714
(lp60
I9238
aI3814
aI1195
aI6561
aI5101
aI8905
aI7447
aI10051
aI9415
atp61
a(g1
I1351
(lp62
I387
aI1650
aI490
aI5876
aI7559
aI9291
aI6842
aI8125
aI5109
atp63
a(g1
I1588
(lp64
I5085
aI9477
aI9549
aI1835
aI2653
aI3397
aI1846
aI4108
aI6353
atp65
a.