(dp0
S'keygenerator'
p1
(iUser.keygen
KeyGene
p2
(dp3
S'masterKey'
p4
(lp5
I1012
aI5941
aI6430
aI2759
aI7020
aI1794
aI1075
aI134
aI3514
aI6352
aI9701
aI5980
aI7353
aI8656
aI8786
aI8452
aI3106
aI8101
aI7583
aI5129
aI4725
aI9335
aI6690
aI1221
aI2098
aI868
aI9287
aI3199
aI5265
aI7428
aI3332
aI3967
aI4801
aI8590
aI6628
aI1895
aI1893
aI4349
aI3512
aI6174
aI5150
aI6485
aI7589
aI3634
aI2451
aI8327
aI8377
aI2255
aI2472
aI6748
aI485
aI5967
aI4225
aI4147
aI7369
aI2208
aI8816
aI903
aI588
aI8598
aI7956
aI7340
aI9734
aI6946
aI8563
aI2664
aI9910
aI3750
aI5482
aI9197
aI3768
aI2430
aI6534
aI2687
aI1964
aI959
aI6846
aI6202
aI777
aI1986
aI906
aI5714
aI2995
aI9173
aI5495
aI482
aI6350
aI6249
aI10079
aI3318
aI1465
aI6441
aI2689
aI604
aI4019
aI6815
aI5244
aI37
aI3918
aI7553
aI2533
aI6157
aI3340
aI8240
aI5420
aI4296
aI3077
aI5199
aI9735
aI510
aI989
aI8859
aI5899
aI5492
aI393
aI6410
aI6276
aI4308
aI6511
aI4042
aI2448
aI9749
aI398
aI7135
aI8905
aI2462
aI8466
aI2523
aI9330
aI6870
aI804
aI6369
aI1652
aI10045
aI7468
aI2453
aI2320
aI5066
aI441
aI7973
aI3231
aI9922
aI462
aI896
aI3404
aI2968
aI2027
aI877
aI5795
aI2845
aI9258
aI79
aI3457
aI6624
aI1184
aI3025
aI7657
aI5643
aI5606
aI5963
aI5891
aI1681
aI4689
aI3134
aI2384
aI943
aI993
aI4079
aI4244
aI9460
aI7312
aI6939
aI8051
aI4875
aI2310
aI2003
aI7516
aI7107
aI2000
aI2488
aI9823
aI74
aI6396
aI1291
aI2013
aI182
aI5022
aI3843
aI5351
aI8796
aI5592
aI982
aI4991
aI7184
aI1546
aI7200
aI3286
aI6353
aI7727
aI5100
aI3525
aI8843
aI5783
aI5359
aI6554
aI3550
aI7816
aI6776
aI5966
aI6727
aI3448
aI8882
aI5254
aI8849
aI4137
aI2940
aI6717
aI2612
aI1962
aI4914
aI4472
aI1548
aI1274
aI4682
aI4457
aI9600
aI1358
aI7863
aI1709
aI7373
aI8169
aI3410
aI8231
aI7728
aI6194
aI9633
aI9289
aI8653
aI1295
aI9452
aI3412
aI3011
aI5057
aI40
aI7703
aI3155
aI9525
aI8509
aI5364
aI3363
aI3708
aI8264
aI7957
aI10286
aI3424
aI7275
aI5912
aI7352
aI3173
aI7473
aI4327
aI6949
aI9233
aI9879
aI6825
aI2522
aI9472
aI7870
aI981
aI9249
aI3113
aI9657
aI6191
aI3177
aI6968
aI5030
aI1494
aI202
aI3810
aI7305
aI1231
aI5213
aI3503
aI2507
aI5618
aI3257
aI5567
aI4281
aI1240
aI4668
aI1589
aI6557
aI4474
aI410
aI9131
aI5860
aI1427
aI8732
aI4321
aI3769
aI2723
aI265
aI3068
aI7606
aI4662
aI7925
aI7090
aI115
aI7617
aI9863
aI9185
aI9956
aI9941
aI9096
aI1453
aI738
aI10172
aI215
aI9421
aI5272
aI1533
aI8230
aI460
aI8838
aI6256
aI9538
aI8801
aI9885
aI9613
aI1506
aI3229
aI6665
aI8518
aI6686
aI680
aI8368
aI7955
aI7080
aI9237
aI10211
aI1205
aI5073
aI4761
aI3624
aI2636
aI6279
aI5411
aI838
aI6007
aI5984
aI1336
aI5903
aI1610
aI998
aI3884
aI4165
aI972
aI7092
aI6429
aI7549
aI3693
aI6303
aI6358
aI3773
aI4767
aI5092
aI5526
aI9718
aI4405
aI3846
aI104
aI1372
aI7691
aI915
aI8660
aI307
aI8388
aI8881
aI5322
aI6246
aI3411
aI7365
aI8647
aI7445
aI4774
aI7321
aI5076
aI4695
aI6110
aI9801
aI9602
aI4960
aI7675
aI2007
aI4100
aI4213
aI9139
aI1168
aI7110
aI9165
aI6531
asbsS'publicKey'
p6
(lp7
I1687
aI6091
aI7079
aI2271
aI2064
aI5329
aI6296
aI9150
aI998
aI7742
aI4998
aI615
aI4378
aI8736
aI7631
aI181
aI4466
aI8309
aI2423
aI2704
aI6138
aI8109
aI4869
aI5055
aI2745
aI2911
aI8517
aI8820
aI1548
aI8885
aI2545
aI2292
aI5492
aI9297
aI5396
aI9615
aI9632
aI9334
aI1015
aI9255
aI7670
aI1467
aI2372
aI10267
aI4889
aI6388
aI5963
aI6555
aI9855
aI4376
aI1022
aI5870
aI99
aI762
aI4242
aI1810
aI7376
aI7758
aI5291
aI9229
aI4397
aI9633
aI9862
aI2693
aI4382
aI8223
aI8366
aI9281
aI4848
aI9282
aI9128
aI10212
aI6195
aI2883
aI3884
aI7282
aI3543
aI9017
aI8829
aI3697
aI2588
aI2876
aI265
aI9486
aI9882
aI6192
aI7759
aI3473
aI1785
aI2664
aI2981
aI1841
aI2866
aI5155
aI1850
aI8951
aI6871
aI4830
aI7853
aI2678
aI4192
aI4255
aI2477
aI1983
aI5375
aI4640
aI9857
aI2109
aI4709
aI5954
aI7027
aI1866
aI6448
aI4763
aI1804
aI7249
aI8388
aI4538
aI1246
aI6799
aI10059
aI4590
aI6906
aI6231
aI1475
aI9940
aI62
aI4277
aI3007
aI3339
aI3455
aI2453
aI6536
aI2074
aI8545
aI4872
aI858
aI8384
aI1396
aI9397
aI8548
aI8264
aI6362
aI2673
aI1933
aI5639
aI8493
aI7979
aI7332
aI1540
aI3619
aI4473
aI6627
aI5430
aI225
aI10
aI1794
aI8624
aI3794
aI5904
aI6516
aI1145
aI6444
aI4228
aI314
aI7418
aI6993
aI1340
aI5082
aI1902
aI9871
aI7897
aI8734
aI4863
aI943
aI8697
aI8137
aI6469
aI3578
aI9719
aI3961
aI9660
aI7368
aI4460
aI8612
aI8742
aI8758
aI3346
aI817
aI7546
aI3913
aI1942
aI3877
aI670
aI7437
aI534
aI2936
aI2589
aI1199
aI8095
aI6049
aI2002
aI7434
aI749
aI6025
aI692
aI5587
aI4138
aI734
aI9699
aI1559
aI6815
aI6786
aI1951
aI847
aI5877
aI9784
aI8665
aI3901
aI9676
aI3144
aI7420
aI9749
aI1359
aI8416
aI712
aI9035
aI43
aI907
aI4208
aI7731
aI1882
aI7204
aI6335
aI9085
aI5576
aI8500
aI3617
aI4426
aI1970
aI1865
aI129
aI3316
aI9949
aI1403
aI9194
aI6494
aI4841
aI5851
aI7426
aI9638
aI1779
aI9533
aI5170
aI1763
aI5041
aI1193
aI9531
aI9041
aI3358
aI9521
aI7812
aI8976
aI3485
aI8866
aI9430
aI1800
aI5128
aI7095
aI8840
aI9551
aI5372
aI3966
aI9007
aI2506
aI8690
aI7879
aI8572
aI8771
aI4786
aI4970
aI1990
aI6236
aI4413
aI3692
aI8327
aI9270
aI9912
aI10038
aI1478
aI1927
aI855
aI3127
aI6804
aI9843
aI1635
aI3304
aI8090
aI9572
aI3975
aI2577
aI2892
aI4789
aI7372
aI1529
aI9805
aI1469
aI4167
aI2134
aI3621
aI9384
aI7975
aI2958
aI4996
aI3083
aI4016
aI6139
aI3317
aI7378
aI6633
aI2403
aI2068
aI6379
aI7189
aI8558
aI1239
aI2359
aI3434
aI5746
aI7777
aI8565
aI10226
aI9909
aI4903
aI4509
aI895
aI9550
aI1554
aI8942
aI663
aI5191
aI3180
aI5832
aI63
aI8461
aI3218
aI307
aI3166
aI5530
aI581
aI9222
aI6414
aI6893
aI1806
aI8142
aI609
aI2027
aI1452
aI1943
aI2712
aI4621
aI3014
aI7691
aI3941
aI5781
aI8163
aI4474
aI9998
aI8858
aI8465
aI9405
aI8916
aI1505
aI7656
aI8702
aI2535
aI725
aI1679
aI6208
aI8643
aI7018
aI4276
aI3668
aI3596
aI577
aI4650
aI8299
aI6393
aI9799
aI4148
aI695
aI9285
aI1641
aI8663
aI6306
aI201
aI9775
aI361
aI1299
aI9554
aI9304
asS'attributi'
p8
(lp9
I0
aI1
aI2
aI3
aI4
aI5
aI6
aI7
aI8
aI9
aI10
aI11
aI12
aI13
aI14
aI15
aI16
aI17
aI18
aI19
aI20
aI21
aI22
aI23
aI24
aI25
aI26
aI27
aI28
aI29
aI30
aI31
aI32
aI33
aI34
aI35
aI36
aI37
aI38
aI39
aI40
aI41
aI42
aI43
aI44
aI45
aI46
aI47
aI48
aI49
aI50
aI51
aI52
aI53
aI54
aI55
aI56
aI57
aI58
aI59
aI60
aI61
aI62
aI63
aI64
aI65
aI66
aI67
aI68
aI69
aI70
aI71
aI72
aI73
aI74
aI75
aI76
aI77
aI78
aI79
aI80
aI81
aI82
aI83
aI84
aI85
aI86
aI87
aI88
aI89
aI90
aI91
aI92
aI93
aI94
aI95
aI96
aI97
aI98
aI99
aI100
aI101
aI102
aI103
aI104
aI105
aI106
aI107
aI108
aI109
aI110
aI111
aI112
aI113
aI114
aI115
aI116
aI117
aI118
aI119
aI120
aI121
aI122
aI123
aI124
aI125
aI126
aI127
aI128
aI129
aI130
aI131
aI132
aI133
aI134
aI135
aI136
aI137
aI138
aI139
aI140
aI141
aI142
aI143
aI144
aI145
aI146
aI147
aI148
aI149
aI150
aI151
aI152
aI153
aI154
aI155
aI156
aI157
aI158
aI159
aI160
aI161
aI162
aI163
aI164
aI165
aI166
aI167
aI168
aI169
aI170
aI171
aI172
aI173
aI174
aI175
aI176
aI177
aI178
aI179
aI180
aI181
aI182
aI183
aI184
aI185
aI186
aI187
aI188
aI189
aI190
aI191
aI192
aI193
aI194
aI195
aI196
aI197
aI198
aI199
aI200
aI201
aI202
aI203
aI204
aI205
aI206
aI207
aI208
aI209
aI210
aI211
aI212
aI213
aI214
aI215
aI216
aI217
aI218
aI219
aI220
aI221
aI222
aI223
aI224
aI225
aI226
aI227
aI228
aI229
aI230
aI231
aI232
aI233
aI234
aI235
aI236
aI237
aI238
aI239
aI240
aI241
aI242
aI243
aI244
aI245
aI246
aI247
aI248
aI249
aI250
aI251
aI252
aI253
aI254
aI255
aI256
aI257
aI258
aI259
aI260
aI261
aI262
aI263
aI264
aI265
aI266
aI267
aI268
aI269
aI270
aI271
aI272
aI273
aI274
aI275
aI276
aI277
aI278
aI279
aI280
aI281
aI282
aI283
aI284
aI285
aI286
aI287
aI288
aI289
aI290
aI291
aI292
aI293
aI294
aI295
aI296
aI297
aI298
aI299
aI300
aI301
aI302
aI303
aI304
aI305
aI306
aI307
aI308
aI309
aI310
aI311
aI312
aI313
aI314
aI315
aI316
aI317
aI318
aI319
aI320
aI321
aI322
aI323
aI324
aI325
aI326
aI327
aI328
aI329
aI330
aI331
aI332
aI333
aI334
aI335
aI336
aI337
aI338
aI339
aI340
aI341
aI342
aI343
aI344
aI345
aI346
aI347
aI348
aI349
aI350
aI351
aI352
aI353
aI354
aI355
aI356
aI357
aI358
aI359
aI360
aI361
aI362
aI363
aI364
aI365
aI366
aI367
aI368
aI369
aI370
aI371
aI372
aI373
aI374
aI375
aI376
aI377
aI378
aI379
aI380
aI381
aI382
aI383
aI384
aI385
aI386
aI387
aI388
aI389
aI390
aI391
aI392
aI393
aI394
aI395
aI396
aI397
aI398
aI399
aI400
asg4
g5
s.