(dp0
S'keygenerator'
p1
(iUser.keygen
KeyGene
p2
(dp3
S'masterKey'
p4
(lp5
I2103
aI4556
aI442
aI4316
aI3748
aI10120
aI3793
aI1027
aI3276
aI4186
aI7127
aI3362
aI9835
aI7947
aI2636
aI5931
aI7682
aI7376
aI395
aI1038
aI1959
aI5765
aI8534
aI102
aI1868
aI5820
aI1283
aI6079
aI5073
aI7791
aI3345
aI32
aI5170
aI9680
aI5268
aI4578
aI3756
aI4674
aI4677
aI2355
aI6415
aI9401
aI1165
aI5626
aI251
aI3905
aI1106
aI3339
aI6214
aI1934
aI7109
aI4165
aI7473
aI10283
aI4474
aI8939
aI9011
aI1049
aI9334
aI4174
aI9935
aI2776
aI1742
aI5131
aI7799
aI1920
aI5430
aI3172
aI2956
aI8436
aI506
aI6364
aI1747
aI3001
aI3580
aI9189
aI6831
aI10119
aI1841
aI7215
aI3795
aI8866
aI4877
aI1576
aI9800
aI295
aI8692
aI1989
aI4872
aI5055
aI5902
aI9031
aI6663
aI1997
aI7891
aI5785
aI9349
aI4436
aI7135
aI3404
aI6779
aI1076
aI2845
aI1182
aI2626
aI2799
aI8170
aI6455
aI4233
aI3824
aI2136
aI4931
aI4625
aI2609
aI1816
aI590
aI5823
aI978
aI9591
aI3833
aI4266
aI6710
aI1703
aI8535
aI1523
aI5906
aI9629
aI2409
aI4968
aI2255
aI10266
aI2495
aI3792
aI5543
aI693
aI9780
aI4144
aI557
aI8367
aI7056
aI5964
aI7849
aI8606
aI6381
aI509
aI117
aI9872
aI8099
aI5813
aI4645
aI10071
aI5482
aI26
aI4650
aI9184
aI2436
aI541
aI4322
aI3343
aI1275
aI9712
aI4044
aI981
aI6050
aI6274
aI5553
aI7653
aI2698
aI3358
aI1174
aI3525
aI4245
aI2924
aI3719
aI4975
aI8582
aI1875
aI9727
aI7855
aI4225
aI1265
aI4922
aI3227
aI6452
aI4281
aI555
aI6022
aI1375
aI3817
aI2154
aI9767
aI7691
aI3636
aI2208
aI9069
aI2622
aI965
aI7311
aI9009
aI9694
aI6422
aI4302
aI4127
aI300
aI9080
aI6629
aI1
aI856
aI2951
aI4894
aI8249
aI3594
aI2730
aI8142
aI8590
aI2123
aI7094
aI8971
aI6419
aI7446
aI8505
aI283
aI6380
aI8722
aI4733
aI4915
aI5745
aI1846
aI7176
aI6960
aI4567
aI9596
aI1202
aI3933
aI1968
aI5694
aI3330
aI9873
aI489
aI8899
aI565
aI2832
aI4662
aI6496
aI7209
aI9650
aI526
aI4977
aI7188
aI6991
aI6701
aI9725
aI7372
aI5066
aI7813
aI2512
aI1008
aI58
aI10009
aI4022
aI2069
aI559
aI1696
aI8951
aI7696
aI8236
aI8022
aI7472
aI1724
aI8852
aI4064
aI8637
aI4624
aI8919
aI9547
aI1117
aI3009
aI6464
aI3519
aI3413
aI9123
aI8929
aI6157
aI7700
aI7570
aI5210
aI4895
aI10278
aI6783
aI554
aI8234
aI8310
aI7255
aI959
aI1591
aI2163
aI8137
aI1937
aI8328
aI7465
aI4563
aI3984
aI7840
aI1481
aI7477
aI9145
aI5897
aI1499
aI3573
aI6161
aI8940
aI6382
aI4565
aI6880
aI8280
aI8641
aI4014
aI3818
aI7352
aI6249
aI9707
aI3661
aI84
aI861
aI8530
aI6379
aI741
aI6121
aI4282
aI5630
aI2953
aI10192
aI6231
aI2681
aI3146
aI242
aI8678
aI6424
aI7866
aI452
aI1485
aI8165
aI4596
aI4614
aI1342
aI6003
aI9304
aI1100
aI4300
aI10232
aI10144
aI6603
aI4657
aI4572
aI2601
aI6725
aI1915
aI5730
aI722
aI4200
aI6048
aI3194
aI8449
aI2535
aI9044
aI3715
aI7276
aI1708
aI9098
aI7439
aI4476
aI3093
aI4379
aI8017
aI10055
aI5523
aI7433
aI7204
aI4988
aI3774
aI52
aI10008
aI5413
aI2556
aI5563
aI4881
aI9613
aI3127
aI726
aI3410
aI1423
aI7316
aI9557
aI10088
aI2140
aI9323
aI39
aI3750
aI8838
aI8107
aI6428
asbsS'publicKey'
p6
(lp7
I7847
aI2430
aI6532
aI4470
aI9298
aI6581
aI3771
aI6704
aI3021
aI5575
aI6299
aI2290
aI3859
aI9618
aI8461
aI6176
aI6726
aI9327
aI1787
aI1466
aI9071
aI7587
aI9773
aI9422
aI4700
aI1975
aI4528
aI4918
aI3180
aI655
aI7579
aI10017
aI7500
aI32
aI6667
aI2243
aI9230
aI1427
aI6546
aI5705
aI2062
aI7548
aI5531
aI3624
aI3011
aI2819
aI888
aI7630
aI8915
aI4139
aI6452
aI609
aI3358
aI51
aI3127
aI1186
aI574
aI6517
aI2973
aI5677
aI3009
aI7271
aI5771
aI2687
aI587
aI4258
aI5290
aI3905
aI5741
aI317
aI5988
aI7640
aI584
aI214
aI437
aI9350
aI8815
aI1445
aI10074
aI5551
aI3754
aI6951
aI4846
aI7182
aI9301
aI2637
aI8430
aI8816
aI10033
aI3333
aI1278
aI404
aI10243
aI8748
aI10094
aI7417
aI7990
aI3450
aI6231
aI1933
aI9257
aI1143
aI1540
aI242
aI8546
aI1931
aI2578
aI1722
aI31
aI8652
aI2422
aI4387
aI6988
aI3546
aI5142
aI5274
aI7094
aI1976
aI5933
aI3431
aI4895
aI4699
aI958
aI4620
aI2488
aI1244
aI5610
aI5246
aI9217
aI6555
aI5340
aI4515
aI8924
aI9474
aI9543
aI9471
aI5932
aI410
aI6048
aI1758
aI751
aI162
aI9161
aI2351
aI818
aI4150
aI8689
aI8326
aI7179
aI6818
aI1853
aI4848
aI10068
aI1631
aI4248
aI10161
aI546
aI4419
aI7596
aI4596
aI10049
aI6782
aI7095
aI20
aI8405
aI9389
aI1828
aI7934
aI2324
aI310
aI6049
aI10218
aI6013
aI4400
aI4013
aI9365
aI9785
aI4777
aI111
aI99
aI4681
aI9608
aI8582
aI6892
aI9912
aI427
aI258
aI3746
aI3567
aI2269
aI4437
aI1505
aI10250
aI1810
aI81
aI8580
aI7231
aI4735
aI591
aI10202
aI7147
aI4589
aI932
aI7739
aI5132
aI243
aI5136
aI3013
aI639
aI9846
aI7051
aI318
aI7662
aI2816
aI9297
aI7677
aI1435
aI914
aI2028
aI8732
aI4875
aI2739
aI7504
aI8175
aI6070
aI4523
aI7757
aI4887
aI738
aI2574
aI7481
aI746
aI72
aI2581
aI3850
aI3046
aI2562
aI3536
aI988
aI1526
aI342
aI6795
aI1529
aI6518
aI5602
aI287
aI5818
aI3996
aI636
aI7455
aI9920
aI4794
aI9361
aI8384
aI468
aI9515
aI1721
aI9796
aI2380
aI6969
aI8136
aI393
aI6162
aI1084
aI6607
aI2017
aI3836
aI8511
aI5924
aI7070
aI6612
aI3753
aI1852
aI1356
aI6307
aI5939
aI146
aI6790
aI6100
aI7001
aI9911
aI1271
aI4255
aI6573
aI7678
aI7160
aI4693
aI5238
aI9223
aI5580
aI2034
aI1388
aI5211
aI7282
aI1910
aI7337
aI8003
aI9258
aI1235
aI3426
aI7515
aI7292
aI5383
aI2845
aI3324
aI9724
aI6465
aI2692
aI5641
aI4221
aI6322
aI7487
aI7498
aI3254
aI1643
aI3719
aI7037
aI8703
aI9531
aI3473
aI4947
aI4893
aI9575
aI8115
aI9807
aI2368
aI9135
aI4561
aI4759
aI3590
aI622
aI5969
aI3626
aI2934
aI4126
aI8232
aI8549
aI7130
aI5162
aI6447
aI2811
aI7765
aI2090
aI1937
aI9171
aI5564
aI3228
aI939
aI4606
aI5629
aI6377
aI464
aI6716
aI2294
aI3614
aI9716
aI9445
aI2740
aI4152
aI5456
aI37
aI3718
aI5351
aI4175
aI5438
aI4434
aI10177
aI6060
aI4979
aI3647
aI3110
aI9721
aI9079
aI9023
aI1989
aI9644
aI3698
aI500
aI9047
aI9077
aI9847
aI7533
aI290
aI9141
aI9304
aI4812
aI5746
aI9432
aI4118
aI1882
aI3338
aI9837
aI6222
aI6853
aI2388
aI8211
aI4813
aI9281
aI7189
aI8258
aI8995
asS'attributi'
p8
(lp9
I0
aI1
aI2
aI3
aI4
aI5
aI6
aI7
aI8
aI9
aI10
aI11
aI12
aI13
aI14
aI15
aI16
aI17
aI18
aI19
aI20
aI21
aI22
aI23
aI24
aI25
aI26
aI27
aI28
aI29
aI30
aI31
aI32
aI33
aI34
aI35
aI36
aI37
aI38
aI39
aI40
aI41
aI42
aI43
aI44
aI45
aI46
aI47
aI48
aI49
aI50
aI51
aI52
aI53
aI54
aI55
aI56
aI57
aI58
aI59
aI60
aI61
aI62
aI63
aI64
aI65
aI66
aI67
aI68
aI69
aI70
aI71
aI72
aI73
aI74
aI75
aI76
aI77
aI78
aI79
aI80
aI81
aI82
aI83
aI84
aI85
aI86
aI87
aI88
aI89
aI90
aI91
aI92
aI93
aI94
aI95
aI96
aI97
aI98
aI99
aI100
aI101
aI102
aI103
aI104
aI105
aI106
aI107
aI108
aI109
aI110
aI111
aI112
aI113
aI114
aI115
aI116
aI117
aI118
aI119
aI120
aI121
aI122
aI123
aI124
aI125
aI126
aI127
aI128
aI129
aI130
aI131
aI132
aI133
aI134
aI135
aI136
aI137
aI138
aI139
aI140
aI141
aI142
aI143
aI144
aI145
aI146
aI147
aI148
aI149
aI150
aI151
aI152
aI153
aI154
aI155
aI156
aI157
aI158
aI159
aI160
aI161
aI162
aI163
aI164
aI165
aI166
aI167
aI168
aI169
aI170
aI171
aI172
aI173
aI174
aI175
aI176
aI177
aI178
aI179
aI180
aI181
aI182
aI183
aI184
aI185
aI186
aI187
aI188
aI189
aI190
aI191
aI192
aI193
aI194
aI195
aI196
aI197
aI198
aI199
aI200
aI201
aI202
aI203
aI204
aI205
aI206
aI207
aI208
aI209
aI210
aI211
aI212
aI213
aI214
aI215
aI216
aI217
aI218
aI219
aI220
aI221
aI222
aI223
aI224
aI225
aI226
aI227
aI228
aI229
aI230
aI231
aI232
aI233
aI234
aI235
aI236
aI237
aI238
aI239
aI240
aI241
aI242
aI243
aI244
aI245
aI246
aI247
aI248
aI249
aI250
aI251
aI252
aI253
aI254
aI255
aI256
aI257
aI258
aI259
aI260
aI261
aI262
aI263
aI264
aI265
aI266
aI267
aI268
aI269
aI270
aI271
aI272
aI273
aI274
aI275
aI276
aI277
aI278
aI279
aI280
aI281
aI282
aI283
aI284
aI285
aI286
aI287
aI288
aI289
aI290
aI291
aI292
aI293
aI294
aI295
aI296
aI297
aI298
aI299
aI300
aI301
aI302
aI303
aI304
aI305
aI306
aI307
aI308
aI309
aI310
aI311
aI312
aI313
aI314
aI315
aI316
aI317
aI318
aI319
aI320
aI321
aI322
aI323
aI324
aI325
aI326
aI327
aI328
aI329
aI330
aI331
aI332
aI333
aI334
aI335
aI336
aI337
aI338
aI339
aI340
aI341
aI342
aI343
aI344
aI345
aI346
aI347
aI348
aI349
aI350
aI351
aI352
aI353
aI354
aI355
aI356
aI357
aI358
aI359
aI360
aI361
aI362
aI363
aI364
aI365
aI366
aI367
aI368
aI369
aI370
aI371
aI372
aI373
aI374
aI375
aI376
aI377
aI378
aI379
aI380
aI381
aI382
aI383
aI384
aI385
aI386
aI387
aI388
aI389
aI390
aI391
aI392
aI393
aI394
aI395
aI396
aI397
aI398
aI399
aI400
asg4
g5
s.